	.text
	.file	"masked_moves.c"
	.file	0 "/home/jatinbha/code/java/string_opts" "masked_moves.c" md5 0x38bd2ced7c3ba9ddaa1000185702740a
	.file	1 "/usr/include/x86_64-linux-gnu/bits" "types.h" md5 0xf6304b1a6dcfc6bee76e9a51043b5090
	.file	2 "/usr/include" "stdint.h" md5 0x24103e292ae21916e87130b926c8d2f8
	.file	3 "/usr/lib/gcc/x86_64-linux-gnu/9/../../../../include/c++/9" "ratio"
	.file	4 "/usr/lib/gcc/x86_64-linux-gnu/9/../../../../include/c++/9" "chrono"
	.file	5 "/usr/lib/gcc/x86_64-linux-gnu/9/../../../../include/c++/9" "type_traits"
	.globl	_Z6micro1PcS_                   # -- Begin function _Z6micro1PcS_
	.p2align	4, 0x90
	.type	_Z6micro1PcS_,@function
_Z6micro1PcS_:                          # @_Z6micro1PcS_
.Lfunc_begin0:
	.loc	0 12 0                          # masked_moves.c:12:0
	.cfi_startproc
# %bb.0:                                # %entry
	pushq	%rbp
	.cfi_def_cfa_offset 16
	.cfi_offset %rbp, -16
	movq	%rsp, %rbp
	.cfi_def_cfa_register %rbp
	movq	%rdi, -8(%rbp)
	movq	%rsi, -16(%rbp)
.Ltmp0:
	.loc	0 17 13 prologue_end            # masked_moves.c:17:13
	movq	-8(%rbp), %rax
	.loc	0 18 12                         # masked_moves.c:18:12
	movq	-16(%rbp), %rcx
	.loc	0 13 3                          # masked_moves.c:13:3
	#APP
	vmovdqu	mask(%rip), %ymm2
	vmaskmovps	(%rcx), %ymm2, %ymm1
	vmaskmovps	%ymm1, %ymm2, (%rax)

	#NO_APP
	.loc	0 21 1 epilogue_begin           # masked_moves.c:21:1
	popq	%rbp
	.cfi_def_cfa %rsp, 8
	retq
.Ltmp1:
.Lfunc_end0:
	.size	_Z6micro1PcS_, .Lfunc_end0-_Z6micro1PcS_
	.cfi_endproc
                                        # -- End function
	.globl	_Z6micro2PcS_                   # -- Begin function _Z6micro2PcS_
	.p2align	4, 0x90
	.type	_Z6micro2PcS_,@function
_Z6micro2PcS_:                          # @_Z6micro2PcS_
.Lfunc_begin1:
	.loc	0 23 0                          # masked_moves.c:23:0
	.cfi_startproc
# %bb.0:                                # %entry
	pushq	%rbp
	.cfi_def_cfa_offset 16
	.cfi_offset %rbp, -16
	movq	%rsp, %rbp
	.cfi_def_cfa_register %rbp
	movq	%rdi, -8(%rbp)
	movq	%rsi, -16(%rbp)
.Ltmp2:
	.loc	0 24 3 prologue_end             # masked_moves.c:24:3
	movq	-8(%rbp), %rcx
	.loc	0 32 11                         # masked_moves.c:32:11
	movq	-16(%rbp), %rdx
	.loc	0 24 3                          # masked_moves.c:24:3
	#APP
	movq	%rcx, %rdi
	movq	%rdx, %rsi
	movdqu	(%rsi), %xmm1
	movdqu	%xmm1, (%rdi)
	movq	15(%rsi), %rax
	movq	%rax, 15(%rdi)

	#NO_APP
	movq	%rcx, -24(%rbp)                 # 8-byte Spill
	movq	-24(%rbp), %rax                 # 8-byte Reload
	movq	%rax, -8(%rbp)
	.loc	0 35 1 epilogue_begin           # masked_moves.c:35:1
	popq	%rbp
	.cfi_def_cfa %rsp, 8
	retq
.Ltmp3:
.Lfunc_end1:
	.size	_Z6micro2PcS_, .Lfunc_end1-_Z6micro2PcS_
	.cfi_endproc
                                        # -- End function
	.globl	_Z6micro3PcS_                   # -- Begin function _Z6micro3PcS_
	.p2align	4, 0x90
	.type	_Z6micro3PcS_,@function
_Z6micro3PcS_:                          # @_Z6micro3PcS_
.Lfunc_begin2:
	.loc	0 37 0                          # masked_moves.c:37:0
	.cfi_startproc
# %bb.0:                                # %entry
	pushq	%rbp
	.cfi_def_cfa_offset 16
	.cfi_offset %rbp, -16
	movq	%rsp, %rbp
	.cfi_def_cfa_register %rbp
	movq	%rdi, -8(%rbp)
	movq	%rsi, -16(%rbp)
.Ltmp4:
	.loc	0 38 3 prologue_end             # masked_moves.c:38:3
	movq	-8(%rbp), %rcx
	.loc	0 48 11                         # masked_moves.c:48:11
	movq	-16(%rbp), %rdx
	.loc	0 38 3                          # masked_moves.c:38:3
	#APP
	movq	%rcx, %rdi
	movq	%rdx, %rsi
	movq	(%rsi), %rax
	movq	%rax, (%rdi)
	movq	8(%rsi), %rax
	movq	%rax, 8(%rdi)
	movq	15(%rsi), %rax
	movq	%rax, 15(%rdi)

	#NO_APP
	movq	%rcx, -24(%rbp)                 # 8-byte Spill
	movq	-24(%rbp), %rax                 # 8-byte Reload
	movq	%rax, -8(%rbp)
	.loc	0 51 1 epilogue_begin           # masked_moves.c:51:1
	popq	%rbp
	.cfi_def_cfa %rsp, 8
	retq
.Ltmp5:
.Lfunc_end2:
	.size	_Z6micro3PcS_, .Lfunc_end2-_Z6micro3PcS_
	.cfi_endproc
                                        # -- End function
	.globl	main                            # -- Begin function main
	.p2align	4, 0x90
	.type	main,@function
main:                                   # @main
.Lfunc_begin3:
	.loc	0 59 0                          # masked_moves.c:59:0
	.cfi_startproc
# %bb.0:                                # %entry
	pushq	%rbp
	.cfi_def_cfa_offset 16
	.cfi_offset %rbp, -16
	movq	%rsp, %rbp
	.cfi_def_cfa_register %rbp
	subq	$176, %rsp
	movl	$0, -4(%rbp)
	movl	%edi, -8(%rbp)
	movq	%rsi, -16(%rbp)
.Ltmp6:
	.loc	0 60 20 prologue_end            # masked_moves.c:60:20
	movq	-16(%rbp), %rax
	movq	8(%rax), %rdi
	.loc	0 60 15 is_stmt 0               # masked_moves.c:60:15
	callq	atoi@PLT
	.loc	0 60 8                          # masked_moves.c:60:8
	movl	%eax, -20(%rbp)
.Ltmp7:
	.loc	0 62 13 is_stmt 1               # masked_moves.c:62:13
	cmpl	$0, -20(%rbp)
	.loc	0 62 18 is_stmt 0               # masked_moves.c:62:18
	je	.LBB3_2
# %bb.1:                                # %lor.lhs.false
	.loc	0 62 26                         # masked_moves.c:62:26
	cmpl	$3, -20(%rbp)
.Ltmp8:
	.loc	0 62 8                          # masked_moves.c:62:8
	jne	.LBB3_15
.LBB3_2:                                # %if.then
.Ltmp9:
	.loc	0 63 19 is_stmt 1               # masked_moves.c:63:19
	callq	_ZNSt6chrono3_V212steady_clock3nowEv@PLT
	movq	%rax, -32(%rbp)
.Ltmp10:
	.loc	0 64 15                         # masked_moves.c:64:15
	movl	$0, -36(%rbp)
.LBB3_3:                                # %for.cond
                                        # =>This Loop Header: Depth=1
                                        #     Child Loop BB3_5 Depth 2
.Ltmp11:
	.loc	0 64 24 is_stmt 0               # masked_moves.c:64:24
	cmpl	$200, -36(%rbp)
.Ltmp12:
	.loc	0 64 6                          # masked_moves.c:64:6
	jge	.LBB3_10
# %bb.4:                                # %for.body
                                        #   in Loop: Header=BB3_3 Depth=1
.Ltmp13:
	.loc	0 65 17 is_stmt 1               # masked_moves.c:65:17
	movl	$0, -40(%rbp)
.LBB3_5:                                # %for.cond5
                                        #   Parent Loop BB3_3 Depth=1
                                        # =>  This Inner Loop Header: Depth=2
.Ltmp14:
	.loc	0 65 26 is_stmt 0               # masked_moves.c:65:26
	cmpl	$10000000, -40(%rbp)            # imm = 0x989680
.Ltmp15:
	.loc	0 65 8                          # masked_moves.c:65:8
	jge	.LBB3_8
# %bb.6:                                # %for.body7
                                        #   in Loop: Header=BB3_5 Depth=2
.Ltmp16:
	.loc	0 66 11 is_stmt 1               # masked_moves.c:66:11
	leaq	dst(%rip), %rdi
	leaq	src(%rip), %rsi
	callq	_Z6micro1PcS_
.Ltmp17:
# %bb.7:                                # %for.inc
                                        #   in Loop: Header=BB3_5 Depth=2
	.loc	0 65 39                         # masked_moves.c:65:39
	movl	-40(%rbp), %eax
	addl	$1, %eax
	movl	%eax, -40(%rbp)
	.loc	0 65 8 is_stmt 0                # masked_moves.c:65:8
	jmp	.LBB3_5
.Ltmp18:
.LBB3_8:                                # %for.end
                                        #   in Loop: Header=BB3_3 Depth=1
	.loc	0 68 6 is_stmt 1                # masked_moves.c:68:6
	jmp	.LBB3_9
.Ltmp19:
.LBB3_9:                                # %for.inc8
                                        #   in Loop: Header=BB3_3 Depth=1
	.loc	0 64 32                         # masked_moves.c:64:32
	movl	-36(%rbp), %eax
	addl	$1, %eax
	movl	%eax, -36(%rbp)
	.loc	0 64 6 is_stmt 0                # masked_moves.c:64:6
	jmp	.LBB3_3
.Ltmp20:
.LBB3_10:                               # %for.end10
	.loc	0 69 17 is_stmt 1               # masked_moves.c:69:17
	callq	_ZNSt6chrono3_V212steady_clock3nowEv@PLT
	movq	%rax, -48(%rbp)
	.loc	0 70 47                         # masked_moves.c:70:47
	leaq	-48(%rbp), %rdi
	leaq	-32(%rbp), %rsi
	callq	_ZNSt6chronomiINS_3_V212steady_clockENS_8durationIlSt5ratioILl1ELl1000000000EEEES6_EENSt11common_typeIJT0_T1_EE4typeERKNS_10time_pointIT_S8_EERKNSC_ISD_S9_EE
	movq	%rax, -64(%rbp)
	.loc	0 70 43 is_stmt 0               # masked_moves.c:70:43
	leaq	-56(%rbp), %rdi
	leaq	-64(%rbp), %rsi
	callq	_ZNSt6chrono8durationIdSt5ratioILl1ELl1EEEC2IlS1_ILl1ELl1000000000EEvEERKNS0_IT_T0_EE
	.loc	0 71 39 is_stmt 1               # masked_moves.c:71:39
	leaq	-56(%rbp), %rdi
	callq	_ZNKSt6chrono8durationIdSt5ratioILl1ELl1EEE5countEv
	.loc	0 71 6 is_stmt 0                # masked_moves.c:71:6
	leaq	.L.str(%rip), %rdi
	movb	$1, %al
	callq	printf@PLT
.Ltmp21:
	.loc	0 72 15 is_stmt 1               # masked_moves.c:72:15
	movl	$0, -68(%rbp)
.LBB3_11:                               # %for.cond19
                                        # =>This Inner Loop Header: Depth=1
.Ltmp22:
	.loc	0 72 24 is_stmt 0               # masked_moves.c:72:24
	cmpl	$24, -68(%rbp)
.Ltmp23:
	.loc	0 72 6                          # masked_moves.c:72:6
	jge	.LBB3_14
# %bb.12:                               # %for.body21
                                        #   in Loop: Header=BB3_11 Depth=1
.Ltmp24:
	.loc	0 73 23 is_stmt 1               # masked_moves.c:73:23
	movslq	-68(%rbp), %rcx
	leaq	dst(%rip), %rax
	movsbl	(%rax,%rcx), %esi
	.loc	0 73 9 is_stmt 0                # masked_moves.c:73:9
	leaq	.L.str.1(%rip), %rdi
	movb	$0, %al
	callq	printf@PLT
.Ltmp25:
# %bb.13:                               # %for.inc24
                                        #   in Loop: Header=BB3_11 Depth=1
	.loc	0 72 31 is_stmt 1               # masked_moves.c:72:31
	movl	-68(%rbp), %eax
	addl	$1, %eax
	movl	%eax, -68(%rbp)
	.loc	0 72 6 is_stmt 0                # masked_moves.c:72:6
	jmp	.LBB3_11
.Ltmp26:
.LBB3_14:                               # %for.end26
	.loc	0 75 13 is_stmt 1               # masked_moves.c:75:13
	movq	stdout@GOTPCREL(%rip), %rax
	movq	(%rax), %rdi
	.loc	0 75 6 is_stmt 0                # masked_moves.c:75:6
	callq	fflush@PLT
.Ltmp27:
.LBB3_15:                               # %if.end
	.loc	0 77 13 is_stmt 1               # masked_moves.c:77:13
	cmpl	$1, -20(%rbp)
	.loc	0 77 18 is_stmt 0               # masked_moves.c:77:18
	je	.LBB3_17
# %bb.16:                               # %lor.lhs.false29
	.loc	0 77 26                         # masked_moves.c:77:26
	cmpl	$3, -20(%rbp)
.Ltmp28:
	.loc	0 77 8                          # masked_moves.c:77:8
	jne	.LBB3_30
.LBB3_17:                               # %if.then31
.Ltmp29:
	.loc	0 78 19 is_stmt 1               # masked_moves.c:78:19
	callq	_ZNSt6chrono3_V212steady_clock3nowEv@PLT
	movq	%rax, -80(%rbp)
.Ltmp30:
	.loc	0 79 15                         # masked_moves.c:79:15
	movl	$0, -84(%rbp)
.LBB3_18:                               # %for.cond37
                                        # =>This Loop Header: Depth=1
                                        #     Child Loop BB3_20 Depth 2
.Ltmp31:
	.loc	0 79 24 is_stmt 0               # masked_moves.c:79:24
	cmpl	$200, -84(%rbp)
.Ltmp32:
	.loc	0 79 6                          # masked_moves.c:79:6
	jge	.LBB3_25
# %bb.19:                               # %for.body39
                                        #   in Loop: Header=BB3_18 Depth=1
.Ltmp33:
	.loc	0 80 17 is_stmt 1               # masked_moves.c:80:17
	movl	$0, -88(%rbp)
.LBB3_20:                               # %for.cond41
                                        #   Parent Loop BB3_18 Depth=1
                                        # =>  This Inner Loop Header: Depth=2
.Ltmp34:
	.loc	0 80 26 is_stmt 0               # masked_moves.c:80:26
	cmpl	$10000000, -88(%rbp)            # imm = 0x989680
.Ltmp35:
	.loc	0 80 8                          # masked_moves.c:80:8
	jge	.LBB3_23
# %bb.21:                               # %for.body43
                                        #   in Loop: Header=BB3_20 Depth=2
.Ltmp36:
	.loc	0 81 11 is_stmt 1               # masked_moves.c:81:11
	leaq	dst(%rip), %rdi
	leaq	src(%rip), %rsi
	callq	_Z6micro2PcS_
.Ltmp37:
# %bb.22:                               # %for.inc44
                                        #   in Loop: Header=BB3_20 Depth=2
	.loc	0 80 39                         # masked_moves.c:80:39
	movl	-88(%rbp), %eax
	addl	$1, %eax
	movl	%eax, -88(%rbp)
	.loc	0 80 8 is_stmt 0                # masked_moves.c:80:8
	jmp	.LBB3_20
.Ltmp38:
.LBB3_23:                               # %for.end46
                                        #   in Loop: Header=BB3_18 Depth=1
	.loc	0 83 6 is_stmt 1                # masked_moves.c:83:6
	jmp	.LBB3_24
.Ltmp39:
.LBB3_24:                               # %for.inc47
                                        #   in Loop: Header=BB3_18 Depth=1
	.loc	0 79 32                         # masked_moves.c:79:32
	movl	-84(%rbp), %eax
	addl	$1, %eax
	movl	%eax, -84(%rbp)
	.loc	0 79 6 is_stmt 0                # masked_moves.c:79:6
	jmp	.LBB3_18
.Ltmp40:
.LBB3_25:                               # %for.end49
	.loc	0 84 17 is_stmt 1               # masked_moves.c:84:17
	callq	_ZNSt6chrono3_V212steady_clock3nowEv@PLT
	movq	%rax, -96(%rbp)
	.loc	0 85 47                         # masked_moves.c:85:47
	leaq	-96(%rbp), %rdi
	leaq	-80(%rbp), %rsi
	callq	_ZNSt6chronomiINS_3_V212steady_clockENS_8durationIlSt5ratioILl1ELl1000000000EEEES6_EENSt11common_typeIJT0_T1_EE4typeERKNS_10time_pointIT_S8_EERKNSC_ISD_S9_EE
	movq	%rax, -112(%rbp)
	.loc	0 85 43 is_stmt 0               # masked_moves.c:85:43
	leaq	-104(%rbp), %rdi
	leaq	-112(%rbp), %rsi
	callq	_ZNSt6chrono8durationIdSt5ratioILl1ELl1EEEC2IlS1_ILl1ELl1000000000EEvEERKNS0_IT_T0_EE
	.loc	0 86 50 is_stmt 1               # masked_moves.c:86:50
	leaq	-104(%rbp), %rdi
	callq	_ZNKSt6chrono8durationIdSt5ratioILl1ELl1EEE5countEv
	.loc	0 86 6 is_stmt 0                # masked_moves.c:86:6
	leaq	.L.str.2(%rip), %rdi
	movb	$1, %al
	callq	printf@PLT
.Ltmp41:
	.loc	0 87 15 is_stmt 1               # masked_moves.c:87:15
	movl	$0, -116(%rbp)
.LBB3_26:                               # %for.cond61
                                        # =>This Inner Loop Header: Depth=1
.Ltmp42:
	.loc	0 87 24 is_stmt 0               # masked_moves.c:87:24
	cmpl	$24, -116(%rbp)
.Ltmp43:
	.loc	0 87 6                          # masked_moves.c:87:6
	jge	.LBB3_29
# %bb.27:                               # %for.body63
                                        #   in Loop: Header=BB3_26 Depth=1
.Ltmp44:
	.loc	0 88 23 is_stmt 1               # masked_moves.c:88:23
	movslq	-116(%rbp), %rcx
	leaq	dst(%rip), %rax
	movsbl	(%rax,%rcx), %esi
	.loc	0 88 9 is_stmt 0                # masked_moves.c:88:9
	leaq	.L.str.1(%rip), %rdi
	movb	$0, %al
	callq	printf@PLT
.Ltmp45:
# %bb.28:                               # %for.inc68
                                        #   in Loop: Header=BB3_26 Depth=1
	.loc	0 87 31 is_stmt 1               # masked_moves.c:87:31
	movl	-116(%rbp), %eax
	addl	$1, %eax
	movl	%eax, -116(%rbp)
	.loc	0 87 6 is_stmt 0                # masked_moves.c:87:6
	jmp	.LBB3_26
.Ltmp46:
.LBB3_29:                               # %for.end70
	.loc	0 90 13 is_stmt 1               # masked_moves.c:90:13
	movq	stdout@GOTPCREL(%rip), %rax
	movq	(%rax), %rdi
	.loc	0 90 6 is_stmt 0                # masked_moves.c:90:6
	callq	fflush@PLT
.Ltmp47:
.LBB3_30:                               # %if.end72
	.loc	0 92 13 is_stmt 1               # masked_moves.c:92:13
	cmpl	$2, -20(%rbp)
	.loc	0 92 18 is_stmt 0               # masked_moves.c:92:18
	je	.LBB3_32
# %bb.31:                               # %lor.lhs.false74
	.loc	0 92 26                         # masked_moves.c:92:26
	cmpl	$3, -20(%rbp)
.Ltmp48:
	.loc	0 92 8                          # masked_moves.c:92:8
	jne	.LBB3_45
.LBB3_32:                               # %if.then76
.Ltmp49:
	.loc	0 93 19 is_stmt 1               # masked_moves.c:93:19
	callq	_ZNSt6chrono3_V212steady_clock3nowEv@PLT
	movq	%rax, -128(%rbp)
.Ltmp50:
	.loc	0 94 15                         # masked_moves.c:94:15
	movl	$0, -132(%rbp)
.LBB3_33:                               # %for.cond82
                                        # =>This Loop Header: Depth=1
                                        #     Child Loop BB3_35 Depth 2
.Ltmp51:
	.loc	0 94 24 is_stmt 0               # masked_moves.c:94:24
	cmpl	$200, -132(%rbp)
.Ltmp52:
	.loc	0 94 6                          # masked_moves.c:94:6
	jge	.LBB3_40
# %bb.34:                               # %for.body84
                                        #   in Loop: Header=BB3_33 Depth=1
.Ltmp53:
	.loc	0 95 17 is_stmt 1               # masked_moves.c:95:17
	movl	$0, -136(%rbp)
.LBB3_35:                               # %for.cond86
                                        #   Parent Loop BB3_33 Depth=1
                                        # =>  This Inner Loop Header: Depth=2
.Ltmp54:
	.loc	0 95 26 is_stmt 0               # masked_moves.c:95:26
	cmpl	$10000000, -136(%rbp)           # imm = 0x989680
.Ltmp55:
	.loc	0 95 8                          # masked_moves.c:95:8
	jge	.LBB3_38
# %bb.36:                               # %for.body88
                                        #   in Loop: Header=BB3_35 Depth=2
.Ltmp56:
	.loc	0 96 11 is_stmt 1               # masked_moves.c:96:11
	leaq	dst(%rip), %rdi
	leaq	src(%rip), %rsi
	callq	_Z6micro3PcS_
.Ltmp57:
# %bb.37:                               # %for.inc89
                                        #   in Loop: Header=BB3_35 Depth=2
	.loc	0 95 39                         # masked_moves.c:95:39
	movl	-136(%rbp), %eax
	addl	$1, %eax
	movl	%eax, -136(%rbp)
	.loc	0 95 8 is_stmt 0                # masked_moves.c:95:8
	jmp	.LBB3_35
.Ltmp58:
.LBB3_38:                               # %for.end91
                                        #   in Loop: Header=BB3_33 Depth=1
	.loc	0 98 6 is_stmt 1                # masked_moves.c:98:6
	jmp	.LBB3_39
.Ltmp59:
.LBB3_39:                               # %for.inc92
                                        #   in Loop: Header=BB3_33 Depth=1
	.loc	0 94 32                         # masked_moves.c:94:32
	movl	-132(%rbp), %eax
	addl	$1, %eax
	movl	%eax, -132(%rbp)
	.loc	0 94 6 is_stmt 0                # masked_moves.c:94:6
	jmp	.LBB3_33
.Ltmp60:
.LBB3_40:                               # %for.end94
	.loc	0 99 17 is_stmt 1               # masked_moves.c:99:17
	callq	_ZNSt6chrono3_V212steady_clock3nowEv@PLT
	movq	%rax, -144(%rbp)
	.loc	0 100 47                        # masked_moves.c:100:47
	leaq	-144(%rbp), %rdi
	leaq	-128(%rbp), %rsi
	callq	_ZNSt6chronomiINS_3_V212steady_clockENS_8durationIlSt5ratioILl1ELl1000000000EEEES6_EENSt11common_typeIJT0_T1_EE4typeERKNS_10time_pointIT_S8_EERKNSC_ISD_S9_EE
	movq	%rax, -160(%rbp)
	.loc	0 100 43 is_stmt 0              # masked_moves.c:100:43
	leaq	-152(%rbp), %rdi
	leaq	-160(%rbp), %rsi
	callq	_ZNSt6chrono8durationIdSt5ratioILl1ELl1EEEC2IlS1_ILl1ELl1000000000EEvEERKNS0_IT_T0_EE
	.loc	0 101 43 is_stmt 1              # masked_moves.c:101:43
	leaq	-152(%rbp), %rdi
	callq	_ZNKSt6chrono8durationIdSt5ratioILl1ELl1EEE5countEv
	.loc	0 101 6 is_stmt 0               # masked_moves.c:101:6
	leaq	.L.str.3(%rip), %rdi
	movb	$1, %al
	callq	printf@PLT
.Ltmp61:
	.loc	0 102 15 is_stmt 1              # masked_moves.c:102:15
	movl	$0, -164(%rbp)
.LBB3_41:                               # %for.cond106
                                        # =>This Inner Loop Header: Depth=1
.Ltmp62:
	.loc	0 102 24 is_stmt 0              # masked_moves.c:102:24
	cmpl	$24, -164(%rbp)
.Ltmp63:
	.loc	0 102 6                         # masked_moves.c:102:6
	jge	.LBB3_44
# %bb.42:                               # %for.body108
                                        #   in Loop: Header=BB3_41 Depth=1
.Ltmp64:
	.loc	0 103 23 is_stmt 1              # masked_moves.c:103:23
	movslq	-164(%rbp), %rcx
	leaq	dst(%rip), %rax
	movsbl	(%rax,%rcx), %esi
	.loc	0 103 9 is_stmt 0               # masked_moves.c:103:9
	leaq	.L.str.1(%rip), %rdi
	movb	$0, %al
	callq	printf@PLT
.Ltmp65:
# %bb.43:                               # %for.inc113
                                        #   in Loop: Header=BB3_41 Depth=1
	.loc	0 102 31 is_stmt 1              # masked_moves.c:102:31
	movl	-164(%rbp), %eax
	addl	$1, %eax
	movl	%eax, -164(%rbp)
	.loc	0 102 6 is_stmt 0               # masked_moves.c:102:6
	jmp	.LBB3_41
.Ltmp66:
.LBB3_44:                               # %for.end115
	.loc	0 105 4 is_stmt 1               # masked_moves.c:105:4
	jmp	.LBB3_45
.Ltmp67:
.LBB3_45:                               # %if.end116
	.loc	0 106 4                         # masked_moves.c:106:4
	leaq	.L.str.4(%rip), %rdi
	movb	$0, %al
	callq	printf@PLT
	.loc	0 107 4                         # masked_moves.c:107:4
	xorl	%eax, %eax
	.loc	0 107 4 epilogue_begin is_stmt 0 # masked_moves.c:107:4
	addq	$176, %rsp
	popq	%rbp
	.cfi_def_cfa %rsp, 8
	retq
.Ltmp68:
.Lfunc_end3:
	.size	main, .Lfunc_end3-main
	.cfi_endproc
                                        # -- End function
	.section	.text._ZNSt6chronomiINS_3_V212steady_clockENS_8durationIlSt5ratioILl1ELl1000000000EEEES6_EENSt11common_typeIJT0_T1_EE4typeERKNS_10time_pointIT_S8_EERKNSC_ISD_S9_EE,"axG",@progbits,_ZNSt6chronomiINS_3_V212steady_clockENS_8durationIlSt5ratioILl1ELl1000000000EEEES6_EENSt11common_typeIJT0_T1_EE4typeERKNS_10time_pointIT_S8_EERKNSC_ISD_S9_EE,comdat
	.weak	_ZNSt6chronomiINS_3_V212steady_clockENS_8durationIlSt5ratioILl1ELl1000000000EEEES6_EENSt11common_typeIJT0_T1_EE4typeERKNS_10time_pointIT_S8_EERKNSC_ISD_S9_EE # -- Begin function _ZNSt6chronomiINS_3_V212steady_clockENS_8durationIlSt5ratioILl1ELl1000000000EEEES6_EENSt11common_typeIJT0_T1_EE4typeERKNS_10time_pointIT_S8_EERKNSC_ISD_S9_EE
	.p2align	4, 0x90
	.type	_ZNSt6chronomiINS_3_V212steady_clockENS_8durationIlSt5ratioILl1ELl1000000000EEEES6_EENSt11common_typeIJT0_T1_EE4typeERKNS_10time_pointIT_S8_EERKNSC_ISD_S9_EE,@function
_ZNSt6chronomiINS_3_V212steady_clockENS_8durationIlSt5ratioILl1ELl1000000000EEEES6_EENSt11common_typeIJT0_T1_EE4typeERKNS_10time_pointIT_S8_EERKNSC_ISD_S9_EE: # @_ZNSt6chronomiINS_3_V212steady_clockENS_8durationIlSt5ratioILl1ELl1000000000EEEES6_EENSt11common_typeIJT0_T1_EE4typeERKNS_10time_pointIT_S8_EERKNSC_ISD_S9_EE
.Lfunc_begin4:
	.loc	4 764 0 is_stmt 1               # /usr/lib/gcc/x86_64-linux-gnu/9/../../../../include/c++/9/chrono:764:0
	.cfi_startproc
# %bb.0:                                # %entry
	pushq	%rbp
	.cfi_def_cfa_offset 16
	.cfi_offset %rbp, -16
	movq	%rsp, %rbp
	.cfi_def_cfa_register %rbp
	subq	$48, %rsp
	movq	%rdi, -16(%rbp)
	movq	%rsi, -24(%rbp)
.Ltmp69:
	.loc	4 764 16 prologue_end           # /usr/lib/gcc/x86_64-linux-gnu/9/../../../../include/c++/9/chrono:764:16
	movq	-16(%rbp), %rdi
	.loc	4 764 22 is_stmt 0              # /usr/lib/gcc/x86_64-linux-gnu/9/../../../../include/c++/9/chrono:764:22
	callq	_ZNKSt6chrono10time_pointINS_3_V212steady_clockENS_8durationIlSt5ratioILl1ELl1000000000EEEEE16time_since_epochEv
	movq	%rax, -32(%rbp)
	.loc	4 764 43                        # /usr/lib/gcc/x86_64-linux-gnu/9/../../../../include/c++/9/chrono:764:43
	movq	-24(%rbp), %rdi
	.loc	4 764 49                        # /usr/lib/gcc/x86_64-linux-gnu/9/../../../../include/c++/9/chrono:764:49
	callq	_ZNKSt6chrono10time_pointINS_3_V212steady_clockENS_8durationIlSt5ratioILl1ELl1000000000EEEEE16time_since_epochEv
	movq	%rax, -40(%rbp)
	.loc	4 764 41                        # /usr/lib/gcc/x86_64-linux-gnu/9/../../../../include/c++/9/chrono:764:41
	leaq	-32(%rbp), %rdi
	leaq	-40(%rbp), %rsi
	callq	_ZNSt6chronomiIlSt5ratioILl1ELl1000000000EElS2_EENSt11common_typeIJNS_8durationIT_T0_EENS4_IT1_T2_EEEE4typeERKS7_RKSA_
	movq	%rax, -8(%rbp)
	.loc	4 764 9                         # /usr/lib/gcc/x86_64-linux-gnu/9/../../../../include/c++/9/chrono:764:9
	movq	-8(%rbp), %rax
	.loc	4 764 9 epilogue_begin          # /usr/lib/gcc/x86_64-linux-gnu/9/../../../../include/c++/9/chrono:764:9
	addq	$48, %rsp
	popq	%rbp
	.cfi_def_cfa %rsp, 8
	retq
.Ltmp70:
.Lfunc_end4:
	.size	_ZNSt6chronomiINS_3_V212steady_clockENS_8durationIlSt5ratioILl1ELl1000000000EEEES6_EENSt11common_typeIJT0_T1_EE4typeERKNS_10time_pointIT_S8_EERKNSC_ISD_S9_EE, .Lfunc_end4-_ZNSt6chronomiINS_3_V212steady_clockENS_8durationIlSt5ratioILl1ELl1000000000EEEES6_EENSt11common_typeIJT0_T1_EE4typeERKNS_10time_pointIT_S8_EERKNSC_ISD_S9_EE
	.cfi_endproc
                                        # -- End function
	.section	.text._ZNSt6chrono8durationIdSt5ratioILl1ELl1EEEC2IlS1_ILl1ELl1000000000EEvEERKNS0_IT_T0_EE,"axG",@progbits,_ZNSt6chrono8durationIdSt5ratioILl1ELl1EEEC2IlS1_ILl1ELl1000000000EEvEERKNS0_IT_T0_EE,comdat
	.weak	_ZNSt6chrono8durationIdSt5ratioILl1ELl1EEEC2IlS1_ILl1ELl1000000000EEvEERKNS0_IT_T0_EE # -- Begin function _ZNSt6chrono8durationIdSt5ratioILl1ELl1EEEC2IlS1_ILl1ELl1000000000EEvEERKNS0_IT_T0_EE
	.p2align	4, 0x90
	.type	_ZNSt6chrono8durationIdSt5ratioILl1ELl1EEEC2IlS1_ILl1ELl1000000000EEvEERKNS0_IT_T0_EE,@function
_ZNSt6chrono8durationIdSt5ratioILl1ELl1EEEC2IlS1_ILl1ELl1000000000EEvEERKNS0_IT_T0_EE: # @_ZNSt6chrono8durationIdSt5ratioILl1ELl1EEEC2IlS1_ILl1ELl1000000000EEvEERKNS0_IT_T0_EE
.Lfunc_begin5:
	.loc	4 339 0 is_stmt 1               # /usr/lib/gcc/x86_64-linux-gnu/9/../../../../include/c++/9/chrono:339:0
	.cfi_startproc
# %bb.0:                                # %entry
	pushq	%rbp
	.cfi_def_cfa_offset 16
	.cfi_offset %rbp, -16
	movq	%rsp, %rbp
	.cfi_def_cfa_register %rbp
	subq	$32, %rsp
	movq	%rdi, -8(%rbp)
	movq	%rsi, -16(%rbp)
	movq	-8(%rbp), %rax
	movq	%rax, -32(%rbp)                 # 8-byte Spill
.Ltmp71:
	.loc	4 339 34 prologue_end           # /usr/lib/gcc/x86_64-linux-gnu/9/../../../../include/c++/9/chrono:339:34
	movq	-16(%rbp), %rdi
	.loc	4 339 10 is_stmt 0              # /usr/lib/gcc/x86_64-linux-gnu/9/../../../../include/c++/9/chrono:339:10
	callq	_ZNSt6chrono13duration_castINS_8durationIdSt5ratioILl1ELl1EEEElS2_ILl1ELl1000000000EEEENSt9enable_ifIXsr13__is_durationIT_EE5valueES7_E4typeERKNS1_IT0_T1_EE
	movsd	%xmm0, -24(%rbp)
	.loc	4 339 39                        # /usr/lib/gcc/x86_64-linux-gnu/9/../../../../include/c++/9/chrono:339:39
	leaq	-24(%rbp), %rdi
	callq	_ZNKSt6chrono8durationIdSt5ratioILl1ELl1EEE5countEv
	movq	-32(%rbp), %rax                 # 8-byte Reload
	.loc	4 339 6                         # /usr/lib/gcc/x86_64-linux-gnu/9/../../../../include/c++/9/chrono:339:6
	movsd	%xmm0, (%rax)
	.loc	4 339 50 epilogue_begin         # /usr/lib/gcc/x86_64-linux-gnu/9/../../../../include/c++/9/chrono:339:50
	addq	$32, %rsp
	popq	%rbp
	.cfi_def_cfa %rsp, 8
	retq
.Ltmp72:
.Lfunc_end5:
	.size	_ZNSt6chrono8durationIdSt5ratioILl1ELl1EEEC2IlS1_ILl1ELl1000000000EEvEERKNS0_IT_T0_EE, .Lfunc_end5-_ZNSt6chrono8durationIdSt5ratioILl1ELl1EEEC2IlS1_ILl1ELl1000000000EEvEERKNS0_IT_T0_EE
	.cfi_endproc
                                        # -- End function
	.section	.text._ZNKSt6chrono8durationIdSt5ratioILl1ELl1EEE5countEv,"axG",@progbits,_ZNKSt6chrono8durationIdSt5ratioILl1ELl1EEE5countEv,comdat
	.weak	_ZNKSt6chrono8durationIdSt5ratioILl1ELl1EEE5countEv # -- Begin function _ZNKSt6chrono8durationIdSt5ratioILl1ELl1EEE5countEv
	.p2align	4, 0x90
	.type	_ZNKSt6chrono8durationIdSt5ratioILl1ELl1EEE5countEv,@function
_ZNKSt6chrono8durationIdSt5ratioILl1ELl1EEE5countEv: # @_ZNKSt6chrono8durationIdSt5ratioILl1ELl1EEE5countEv
.Lfunc_begin6:
	.loc	4 347 0 is_stmt 1               # /usr/lib/gcc/x86_64-linux-gnu/9/../../../../include/c++/9/chrono:347:0
	.cfi_startproc
# %bb.0:                                # %entry
	pushq	%rbp
	.cfi_def_cfa_offset 16
	.cfi_offset %rbp, -16
	movq	%rsp, %rbp
	.cfi_def_cfa_register %rbp
	movq	%rdi, -8(%rbp)
	movq	-8(%rbp), %rax
.Ltmp73:
	.loc	4 347 11 prologue_end           # /usr/lib/gcc/x86_64-linux-gnu/9/../../../../include/c++/9/chrono:347:11
	movsd	(%rax), %xmm0                   # xmm0 = mem[0],zero
	.loc	4 347 4 epilogue_begin is_stmt 0 # /usr/lib/gcc/x86_64-linux-gnu/9/../../../../include/c++/9/chrono:347:4
	popq	%rbp
	.cfi_def_cfa %rsp, 8
	retq
.Ltmp74:
.Lfunc_end6:
	.size	_ZNKSt6chrono8durationIdSt5ratioILl1ELl1EEE5countEv, .Lfunc_end6-_ZNKSt6chrono8durationIdSt5ratioILl1ELl1EEE5countEv
	.cfi_endproc
                                        # -- End function
	.section	.text._ZNSt6chronomiIlSt5ratioILl1ELl1000000000EElS2_EENSt11common_typeIJNS_8durationIT_T0_EENS4_IT1_T2_EEEE4typeERKS7_RKSA_,"axG",@progbits,_ZNSt6chronomiIlSt5ratioILl1ELl1000000000EElS2_EENSt11common_typeIJNS_8durationIT_T0_EENS4_IT1_T2_EEEE4typeERKS7_RKSA_,comdat
	.weak	_ZNSt6chronomiIlSt5ratioILl1ELl1000000000EElS2_EENSt11common_typeIJNS_8durationIT_T0_EENS4_IT1_T2_EEEE4typeERKS7_RKSA_ # -- Begin function _ZNSt6chronomiIlSt5ratioILl1ELl1000000000EElS2_EENSt11common_typeIJNS_8durationIT_T0_EENS4_IT1_T2_EEEE4typeERKS7_RKSA_
	.p2align	4, 0x90
	.type	_ZNSt6chronomiIlSt5ratioILl1ELl1000000000EElS2_EENSt11common_typeIJNS_8durationIT_T0_EENS4_IT1_T2_EEEE4typeERKS7_RKSA_,@function
_ZNSt6chronomiIlSt5ratioILl1ELl1000000000EElS2_EENSt11common_typeIJNS_8durationIT_T0_EENS4_IT1_T2_EEEE4typeERKS7_RKSA_: # @_ZNSt6chronomiIlSt5ratioILl1ELl1000000000EElS2_EENSt11common_typeIJNS_8durationIT_T0_EENS4_IT1_T2_EEEE4typeERKS7_RKSA_
.Lfunc_begin7:
	.loc	4 465 0 is_stmt 1               # /usr/lib/gcc/x86_64-linux-gnu/9/../../../../include/c++/9/chrono:465:0
	.cfi_startproc
# %bb.0:                                # %entry
	pushq	%rbp
	.cfi_def_cfa_offset 16
	.cfi_offset %rbp, -16
	movq	%rsp, %rbp
	.cfi_def_cfa_register %rbp
	subq	$64, %rsp
	movq	%rdi, -16(%rbp)
	movq	%rsi, -24(%rbp)
.Ltmp75:
	.loc	4 469 19 prologue_end           # /usr/lib/gcc/x86_64-linux-gnu/9/../../../../include/c++/9/chrono:469:19
	movq	-16(%rbp), %rax
	.loc	4 469 14 is_stmt 0              # /usr/lib/gcc/x86_64-linux-gnu/9/../../../../include/c++/9/chrono:469:14
	movq	(%rax), %rax
	movq	%rax, -40(%rbp)
	.loc	4 469 26                        # /usr/lib/gcc/x86_64-linux-gnu/9/../../../../include/c++/9/chrono:469:26
	leaq	-40(%rbp), %rdi
	callq	_ZNKSt6chrono8durationIlSt5ratioILl1ELl1000000000EEE5countEv
	movq	%rax, -56(%rbp)                 # 8-byte Spill
	.loc	4 469 41                        # /usr/lib/gcc/x86_64-linux-gnu/9/../../../../include/c++/9/chrono:469:41
	movq	-24(%rbp), %rax
	.loc	4 469 36                        # /usr/lib/gcc/x86_64-linux-gnu/9/../../../../include/c++/9/chrono:469:36
	movq	(%rax), %rax
	movq	%rax, -48(%rbp)
	.loc	4 469 48                        # /usr/lib/gcc/x86_64-linux-gnu/9/../../../../include/c++/9/chrono:469:48
	leaq	-48(%rbp), %rdi
	callq	_ZNKSt6chrono8durationIlSt5ratioILl1ELl1000000000EEE5countEv
	movq	%rax, %rcx
	movq	-56(%rbp), %rax                 # 8-byte Reload
	.loc	4 469 34                        # /usr/lib/gcc/x86_64-linux-gnu/9/../../../../include/c++/9/chrono:469:34
	subq	%rcx, %rax
	.loc	4 469 14                        # /usr/lib/gcc/x86_64-linux-gnu/9/../../../../include/c++/9/chrono:469:14
	movq	%rax, -32(%rbp)
	.loc	4 469 9                         # /usr/lib/gcc/x86_64-linux-gnu/9/../../../../include/c++/9/chrono:469:9
	leaq	-8(%rbp), %rdi
	leaq	-32(%rbp), %rsi
	callq	_ZNSt6chrono8durationIlSt5ratioILl1ELl1000000000EEEC2IlvEERKT_
	.loc	4 469 2                         # /usr/lib/gcc/x86_64-linux-gnu/9/../../../../include/c++/9/chrono:469:2
	movq	-8(%rbp), %rax
	.loc	4 469 2 epilogue_begin          # /usr/lib/gcc/x86_64-linux-gnu/9/../../../../include/c++/9/chrono:469:2
	addq	$64, %rsp
	popq	%rbp
	.cfi_def_cfa %rsp, 8
	retq
.Ltmp76:
.Lfunc_end7:
	.size	_ZNSt6chronomiIlSt5ratioILl1ELl1000000000EElS2_EENSt11common_typeIJNS_8durationIT_T0_EENS4_IT1_T2_EEEE4typeERKS7_RKSA_, .Lfunc_end7-_ZNSt6chronomiIlSt5ratioILl1ELl1000000000EElS2_EENSt11common_typeIJNS_8durationIT_T0_EENS4_IT1_T2_EEEE4typeERKS7_RKSA_
	.cfi_endproc
                                        # -- End function
	.section	.text._ZNKSt6chrono10time_pointINS_3_V212steady_clockENS_8durationIlSt5ratioILl1ELl1000000000EEEEE16time_since_epochEv,"axG",@progbits,_ZNKSt6chrono10time_pointINS_3_V212steady_clockENS_8durationIlSt5ratioILl1ELl1000000000EEEEE16time_since_epochEv,comdat
	.weak	_ZNKSt6chrono10time_pointINS_3_V212steady_clockENS_8durationIlSt5ratioILl1ELl1000000000EEEEE16time_since_epochEv # -- Begin function _ZNKSt6chrono10time_pointINS_3_V212steady_clockENS_8durationIlSt5ratioILl1ELl1000000000EEEEE16time_since_epochEv
	.p2align	4, 0x90
	.type	_ZNKSt6chrono10time_pointINS_3_V212steady_clockENS_8durationIlSt5ratioILl1ELl1000000000EEEEE16time_since_epochEv,@function
_ZNKSt6chrono10time_pointINS_3_V212steady_clockENS_8durationIlSt5ratioILl1ELl1000000000EEEEE16time_since_epochEv: # @_ZNKSt6chrono10time_pointINS_3_V212steady_clockENS_8durationIlSt5ratioILl1ELl1000000000EEEEE16time_since_epochEv
.Lfunc_begin8:
	.loc	4 650 0 is_stmt 1               # /usr/lib/gcc/x86_64-linux-gnu/9/../../../../include/c++/9/chrono:650:0
	.cfi_startproc
# %bb.0:                                # %entry
	pushq	%rbp
	.cfi_def_cfa_offset 16
	.cfi_offset %rbp, -16
	movq	%rsp, %rbp
	.cfi_def_cfa_register %rbp
	movq	%rdi, -16(%rbp)
	movq	-16(%rbp), %rax
.Ltmp77:
	.loc	4 650 11 prologue_end           # /usr/lib/gcc/x86_64-linux-gnu/9/../../../../include/c++/9/chrono:650:11
	movq	(%rax), %rax
	movq	%rax, -8(%rbp)
	.loc	4 650 4 is_stmt 0               # /usr/lib/gcc/x86_64-linux-gnu/9/../../../../include/c++/9/chrono:650:4
	movq	-8(%rbp), %rax
	.loc	4 650 4 epilogue_begin          # /usr/lib/gcc/x86_64-linux-gnu/9/../../../../include/c++/9/chrono:650:4
	popq	%rbp
	.cfi_def_cfa %rsp, 8
	retq
.Ltmp78:
.Lfunc_end8:
	.size	_ZNKSt6chrono10time_pointINS_3_V212steady_clockENS_8durationIlSt5ratioILl1ELl1000000000EEEEE16time_since_epochEv, .Lfunc_end8-_ZNKSt6chrono10time_pointINS_3_V212steady_clockENS_8durationIlSt5ratioILl1ELl1000000000EEEEE16time_since_epochEv
	.cfi_endproc
                                        # -- End function
	.section	.text._ZNKSt6chrono8durationIlSt5ratioILl1ELl1000000000EEE5countEv,"axG",@progbits,_ZNKSt6chrono8durationIlSt5ratioILl1ELl1000000000EEE5countEv,comdat
	.weak	_ZNKSt6chrono8durationIlSt5ratioILl1ELl1000000000EEE5countEv # -- Begin function _ZNKSt6chrono8durationIlSt5ratioILl1ELl1000000000EEE5countEv
	.p2align	4, 0x90
	.type	_ZNKSt6chrono8durationIlSt5ratioILl1ELl1000000000EEE5countEv,@function
_ZNKSt6chrono8durationIlSt5ratioILl1ELl1000000000EEE5countEv: # @_ZNKSt6chrono8durationIlSt5ratioILl1ELl1000000000EEE5countEv
.Lfunc_begin9:
	.loc	4 347 0 is_stmt 1               # /usr/lib/gcc/x86_64-linux-gnu/9/../../../../include/c++/9/chrono:347:0
	.cfi_startproc
# %bb.0:                                # %entry
	pushq	%rbp
	.cfi_def_cfa_offset 16
	.cfi_offset %rbp, -16
	movq	%rsp, %rbp
	.cfi_def_cfa_register %rbp
	movq	%rdi, -8(%rbp)
	movq	-8(%rbp), %rax
.Ltmp79:
	.loc	4 347 11 prologue_end           # /usr/lib/gcc/x86_64-linux-gnu/9/../../../../include/c++/9/chrono:347:11
	movq	(%rax), %rax
	.loc	4 347 4 epilogue_begin is_stmt 0 # /usr/lib/gcc/x86_64-linux-gnu/9/../../../../include/c++/9/chrono:347:4
	popq	%rbp
	.cfi_def_cfa %rsp, 8
	retq
.Ltmp80:
.Lfunc_end9:
	.size	_ZNKSt6chrono8durationIlSt5ratioILl1ELl1000000000EEE5countEv, .Lfunc_end9-_ZNKSt6chrono8durationIlSt5ratioILl1ELl1000000000EEE5countEv
	.cfi_endproc
                                        # -- End function
	.section	.text._ZNSt6chrono8durationIlSt5ratioILl1ELl1000000000EEEC2IlvEERKT_,"axG",@progbits,_ZNSt6chrono8durationIlSt5ratioILl1ELl1000000000EEEC2IlvEERKT_,comdat
	.weak	_ZNSt6chrono8durationIlSt5ratioILl1ELl1000000000EEEC2IlvEERKT_ # -- Begin function _ZNSt6chrono8durationIlSt5ratioILl1ELl1000000000EEEC2IlvEERKT_
	.p2align	4, 0x90
	.type	_ZNSt6chrono8durationIlSt5ratioILl1ELl1000000000EEEC2IlvEERKT_,@function
_ZNSt6chrono8durationIlSt5ratioILl1ELl1000000000EEEC2IlvEERKT_: # @_ZNSt6chrono8durationIlSt5ratioILl1ELl1000000000EEEC2IlvEERKT_
.Lfunc_begin10:
	.loc	4 332 0 is_stmt 1               # /usr/lib/gcc/x86_64-linux-gnu/9/../../../../include/c++/9/chrono:332:0
	.cfi_startproc
# %bb.0:                                # %entry
	pushq	%rbp
	.cfi_def_cfa_offset 16
	.cfi_offset %rbp, -16
	movq	%rsp, %rbp
	.cfi_def_cfa_register %rbp
	movq	%rdi, -8(%rbp)
	movq	%rsi, -16(%rbp)
	movq	-8(%rbp), %rax
.Ltmp81:
	.loc	4 332 27 prologue_end           # /usr/lib/gcc/x86_64-linux-gnu/9/../../../../include/c++/9/chrono:332:27
	movq	-16(%rbp), %rcx
	movq	(%rcx), %rcx
	.loc	4 332 6 is_stmt 0               # /usr/lib/gcc/x86_64-linux-gnu/9/../../../../include/c++/9/chrono:332:6
	movq	%rcx, (%rax)
	.loc	4 332 37 epilogue_begin         # /usr/lib/gcc/x86_64-linux-gnu/9/../../../../include/c++/9/chrono:332:37
	popq	%rbp
	.cfi_def_cfa %rsp, 8
	retq
.Ltmp82:
.Lfunc_end10:
	.size	_ZNSt6chrono8durationIlSt5ratioILl1ELl1000000000EEEC2IlvEERKT_, .Lfunc_end10-_ZNSt6chrono8durationIlSt5ratioILl1ELl1000000000EEEC2IlvEERKT_
	.cfi_endproc
                                        # -- End function
	.section	.text._ZNSt6chrono13duration_castINS_8durationIdSt5ratioILl1ELl1EEEElS2_ILl1ELl1000000000EEEENSt9enable_ifIXsr13__is_durationIT_EE5valueES7_E4typeERKNS1_IT0_T1_EE,"axG",@progbits,_ZNSt6chrono13duration_castINS_8durationIdSt5ratioILl1ELl1EEEElS2_ILl1ELl1000000000EEEENSt9enable_ifIXsr13__is_durationIT_EE5valueES7_E4typeERKNS1_IT0_T1_EE,comdat
	.weak	_ZNSt6chrono13duration_castINS_8durationIdSt5ratioILl1ELl1EEEElS2_ILl1ELl1000000000EEEENSt9enable_ifIXsr13__is_durationIT_EE5valueES7_E4typeERKNS1_IT0_T1_EE # -- Begin function _ZNSt6chrono13duration_castINS_8durationIdSt5ratioILl1ELl1EEEElS2_ILl1ELl1000000000EEEENSt9enable_ifIXsr13__is_durationIT_EE5valueES7_E4typeERKNS1_IT0_T1_EE
	.p2align	4, 0x90
	.type	_ZNSt6chrono13duration_castINS_8durationIdSt5ratioILl1ELl1EEEElS2_ILl1ELl1000000000EEEENSt9enable_ifIXsr13__is_durationIT_EE5valueES7_E4typeERKNS1_IT0_T1_EE,@function
_ZNSt6chrono13duration_castINS_8durationIdSt5ratioILl1ELl1EEEElS2_ILl1ELl1000000000EEEENSt9enable_ifIXsr13__is_durationIT_EE5valueES7_E4typeERKNS1_IT0_T1_EE: # @_ZNSt6chrono13duration_castINS_8durationIdSt5ratioILl1ELl1EEEElS2_ILl1ELl1000000000EEEENSt9enable_ifIXsr13__is_durationIT_EE5valueES7_E4typeERKNS1_IT0_T1_EE
.Lfunc_begin11:
	.loc	4 192 0 is_stmt 1               # /usr/lib/gcc/x86_64-linux-gnu/9/../../../../include/c++/9/chrono:192:0
	.cfi_startproc
# %bb.0:                                # %entry
	pushq	%rbp
	.cfi_def_cfa_offset 16
	.cfi_offset %rbp, -16
	movq	%rsp, %rbp
	.cfi_def_cfa_register %rbp
	subq	$16, %rsp
	movq	%rdi, -16(%rbp)
.Ltmp83:
	.loc	4 200 22 prologue_end           # /usr/lib/gcc/x86_64-linux-gnu/9/../../../../include/c++/9/chrono:200:22
	movq	-16(%rbp), %rdi
	.loc	4 200 9 is_stmt 0               # /usr/lib/gcc/x86_64-linux-gnu/9/../../../../include/c++/9/chrono:200:9
	callq	_ZNSt6chrono20__duration_cast_implINS_8durationIdSt5ratioILl1ELl1EEEES2_ILl1ELl1000000000EEdLb1ELb0EE6__castIlS5_EES4_RKNS1_IT_T0_EE
	movsd	%xmm0, -8(%rbp)
	.loc	4 200 2                         # /usr/lib/gcc/x86_64-linux-gnu/9/../../../../include/c++/9/chrono:200:2
	movsd	-8(%rbp), %xmm0                 # xmm0 = mem[0],zero
	.loc	4 200 2 epilogue_begin          # /usr/lib/gcc/x86_64-linux-gnu/9/../../../../include/c++/9/chrono:200:2
	addq	$16, %rsp
	popq	%rbp
	.cfi_def_cfa %rsp, 8
	retq
.Ltmp84:
.Lfunc_end11:
	.size	_ZNSt6chrono13duration_castINS_8durationIdSt5ratioILl1ELl1EEEElS2_ILl1ELl1000000000EEEENSt9enable_ifIXsr13__is_durationIT_EE5valueES7_E4typeERKNS1_IT0_T1_EE, .Lfunc_end11-_ZNSt6chrono13duration_castINS_8durationIdSt5ratioILl1ELl1EEEElS2_ILl1ELl1000000000EEEENSt9enable_ifIXsr13__is_durationIT_EE5valueES7_E4typeERKNS1_IT0_T1_EE
	.cfi_endproc
                                        # -- End function
	.section	.rodata.cst8,"aM",@progbits,8
	.p2align	3, 0x0                          # -- Begin function _ZNSt6chrono20__duration_cast_implINS_8durationIdSt5ratioILl1ELl1EEEES2_ILl1ELl1000000000EEdLb1ELb0EE6__castIlS5_EES4_RKNS1_IT_T0_EE
.LCPI12_0:
	.quad	0x41cdcd6500000000              # double 1.0E+9
	.section	.text._ZNSt6chrono20__duration_cast_implINS_8durationIdSt5ratioILl1ELl1EEEES2_ILl1ELl1000000000EEdLb1ELb0EE6__castIlS5_EES4_RKNS1_IT_T0_EE,"axG",@progbits,_ZNSt6chrono20__duration_cast_implINS_8durationIdSt5ratioILl1ELl1EEEES2_ILl1ELl1000000000EEdLb1ELb0EE6__castIlS5_EES4_RKNS1_IT_T0_EE,comdat
	.weak	_ZNSt6chrono20__duration_cast_implINS_8durationIdSt5ratioILl1ELl1EEEES2_ILl1ELl1000000000EEdLb1ELb0EE6__castIlS5_EES4_RKNS1_IT_T0_EE
	.p2align	4, 0x90
	.type	_ZNSt6chrono20__duration_cast_implINS_8durationIdSt5ratioILl1ELl1EEEES2_ILl1ELl1000000000EEdLb1ELb0EE6__castIlS5_EES4_RKNS1_IT_T0_EE,@function
_ZNSt6chrono20__duration_cast_implINS_8durationIdSt5ratioILl1ELl1EEEES2_ILl1ELl1000000000EEdLb1ELb0EE6__castIlS5_EES4_RKNS1_IT_T0_EE: # @_ZNSt6chrono20__duration_cast_implINS_8durationIdSt5ratioILl1ELl1EEEES2_ILl1ELl1000000000EEdLb1ELb0EE6__castIlS5_EES4_RKNS1_IT_T0_EE
.Lfunc_begin12:
	.loc	4 150 0 is_stmt 1               # /usr/lib/gcc/x86_64-linux-gnu/9/../../../../include/c++/9/chrono:150:0
	.cfi_startproc
# %bb.0:                                # %entry
	pushq	%rbp
	.cfi_def_cfa_offset 16
	.cfi_offset %rbp, -16
	movq	%rsp, %rbp
	.cfi_def_cfa_register %rbp
	subq	$32, %rsp
	movq	%rdi, -16(%rbp)
.Ltmp85:
	.loc	4 153 25 prologue_end           # /usr/lib/gcc/x86_64-linux-gnu/9/../../../../include/c++/9/chrono:153:25
	movq	-16(%rbp), %rdi
	.loc	4 153 29 is_stmt 0              # /usr/lib/gcc/x86_64-linux-gnu/9/../../../../include/c++/9/chrono:153:29
	callq	_ZNKSt6chrono8durationIlSt5ratioILl1ELl1000000000EEE5countEv
	.loc	4 153 25                        # /usr/lib/gcc/x86_64-linux-gnu/9/../../../../include/c++/9/chrono:153:25
	cvtsi2sd	%rax, %xmm0
	.loc	4 153 38                        # /usr/lib/gcc/x86_64-linux-gnu/9/../../../../include/c++/9/chrono:153:38
	movsd	.LCPI12_0(%rip), %xmm1          # xmm1 = mem[0],zero
	divsd	%xmm1, %xmm0
	.loc	4 152 20 is_stmt 1              # /usr/lib/gcc/x86_64-linux-gnu/9/../../../../include/c++/9/chrono:152:20
	movsd	%xmm0, -24(%rbp)
	.loc	4 152 13 is_stmt 0              # /usr/lib/gcc/x86_64-linux-gnu/9/../../../../include/c++/9/chrono:152:13
	leaq	-8(%rbp), %rdi
	leaq	-24(%rbp), %rsi
	callq	_ZNSt6chrono8durationIdSt5ratioILl1ELl1EEEC2IdvEERKT_
	.loc	4 152 6                         # /usr/lib/gcc/x86_64-linux-gnu/9/../../../../include/c++/9/chrono:152:6
	movsd	-8(%rbp), %xmm0                 # xmm0 = mem[0],zero
	.loc	4 152 6 epilogue_begin          # /usr/lib/gcc/x86_64-linux-gnu/9/../../../../include/c++/9/chrono:152:6
	addq	$32, %rsp
	popq	%rbp
	.cfi_def_cfa %rsp, 8
	retq
.Ltmp86:
.Lfunc_end12:
	.size	_ZNSt6chrono20__duration_cast_implINS_8durationIdSt5ratioILl1ELl1EEEES2_ILl1ELl1000000000EEdLb1ELb0EE6__castIlS5_EES4_RKNS1_IT_T0_EE, .Lfunc_end12-_ZNSt6chrono20__duration_cast_implINS_8durationIdSt5ratioILl1ELl1EEEES2_ILl1ELl1000000000EEdLb1ELb0EE6__castIlS5_EES4_RKNS1_IT_T0_EE
	.cfi_endproc
                                        # -- End function
	.section	.text._ZNSt6chrono8durationIdSt5ratioILl1ELl1EEEC2IdvEERKT_,"axG",@progbits,_ZNSt6chrono8durationIdSt5ratioILl1ELl1EEEC2IdvEERKT_,comdat
	.weak	_ZNSt6chrono8durationIdSt5ratioILl1ELl1EEEC2IdvEERKT_ # -- Begin function _ZNSt6chrono8durationIdSt5ratioILl1ELl1EEEC2IdvEERKT_
	.p2align	4, 0x90
	.type	_ZNSt6chrono8durationIdSt5ratioILl1ELl1EEEC2IdvEERKT_,@function
_ZNSt6chrono8durationIdSt5ratioILl1ELl1EEEC2IdvEERKT_: # @_ZNSt6chrono8durationIdSt5ratioILl1ELl1EEEC2IdvEERKT_
.Lfunc_begin13:
	.loc	4 332 0 is_stmt 1               # /usr/lib/gcc/x86_64-linux-gnu/9/../../../../include/c++/9/chrono:332:0
	.cfi_startproc
# %bb.0:                                # %entry
	pushq	%rbp
	.cfi_def_cfa_offset 16
	.cfi_offset %rbp, -16
	movq	%rsp, %rbp
	.cfi_def_cfa_register %rbp
	movq	%rdi, -8(%rbp)
	movq	%rsi, -16(%rbp)
	movq	-8(%rbp), %rax
.Ltmp87:
	.loc	4 332 27 prologue_end           # /usr/lib/gcc/x86_64-linux-gnu/9/../../../../include/c++/9/chrono:332:27
	movq	-16(%rbp), %rcx
	movsd	(%rcx), %xmm0                   # xmm0 = mem[0],zero
	.loc	4 332 6 is_stmt 0               # /usr/lib/gcc/x86_64-linux-gnu/9/../../../../include/c++/9/chrono:332:6
	movsd	%xmm0, (%rax)
	.loc	4 332 37 epilogue_begin         # /usr/lib/gcc/x86_64-linux-gnu/9/../../../../include/c++/9/chrono:332:37
	popq	%rbp
	.cfi_def_cfa %rsp, 8
	retq
.Ltmp88:
.Lfunc_end13:
	.size	_ZNSt6chrono8durationIdSt5ratioILl1ELl1EEEC2IdvEERKT_, .Lfunc_end13-_ZNSt6chrono8durationIdSt5ratioILl1ELl1EEEC2IdvEERKT_
	.cfi_endproc
                                        # -- End function
	.type	mask,@object                    # @mask
	.data
	.globl	mask
	.p2align	4, 0x0
mask:
	.ascii	"\000\000\000\200\000\000\000\200\000\000\000\200\000\000\000\200\000\000\000\200\000\000\000\200"
	.size	mask, 24

	.type	src,@object                     # @src
	.globl	src
	.p2align	4, 0x0
src:
	.zero	24,49
	.size	src, 24

	.type	dst,@object                     # @dst
	.bss
	.globl	dst
	.p2align	4, 0x0
dst:
	.zero	24
	.size	dst, 24

	.type	.L.str,@object                  # @.str
	.section	.rodata.str1.1,"aMS",@progbits,1
.L.str:
	.asciz	"[simd time] %lf\n"
	.size	.L.str, 17

	.type	.L.str.1,@object                # @.str.1
.L.str.1:
	.asciz	"%c "
	.size	.L.str.1, 4

	.type	.L.str.2,@object                # @.str.2
.L.str.2:
	.asciz	"\n[simd + scalar time] %lf\n"
	.size	.L.str.2, 27

	.type	.L.str.3,@object                # @.str.3
.L.str.3:
	.asciz	"\n[scalar time] %lf\n"
	.size	.L.str.3, 20

	.type	.L.str.4,@object                # @.str.4
.L.str.4:
	.asciz	"\n"
	.size	.L.str.4, 2

	.file	6 "/usr/include/x86_64-linux-gnu/bits" "stdint-intn.h" md5 0x081edea97425b3437dded4a7fe223193
	.file	7 "/usr/lib/gcc/x86_64-linux-gnu/9/../../../../include/c++/9" "cstdint"
	.file	8 "/usr/include/x86_64-linux-gnu/bits" "stdint-uintn.h" md5 0xd3ea318a915682aaf6645ec16ac9f991
	.file	9 "/usr/include/x86_64-linux-gnu/bits/types" "clock_t.h" md5 0x1aade99fd778d1551600c7ca1410b9f1
	.file	10 "/usr/lib/gcc/x86_64-linux-gnu/9/../../../../include/c++/9" "ctime"
	.file	11 "/usr/include/x86_64-linux-gnu/bits/types" "time_t.h" md5 0x49b4e16ef1215de5afdbb283400ab90c
	.file	12 "/usr/include" "time.h" md5 0x2dc9fb937b28c900f98919b5c35320c2
	.file	13 "/home/jatinbha" "sandboxes/llvm-project/llvm-project/llvm/build-dir/lib/clang/18/include/__stddef_size_t.h" md5 0x405db6ea5fb824de326715f26fa9fab5
	.file	14 "/usr/include/x86_64-linux-gnu/bits/types" "struct_timespec.h" md5 0x33f28095c70788baa6982a79b13f774b
	.file	15 "/usr/lib/gcc/x86_64-linux-gnu/9/../../../../include/c++/9/debug" "debug.h" md5 0x1e1a444391d862db9c9b259fde858dd4
	.file	16 "/usr/include/x86_64-linux-gnu/bits/types" "__mbstate_t.h" md5 0x82911a3e689448e3691ded3e0b471a55
	.file	17 "/usr/include/x86_64-linux-gnu/bits/types" "mbstate_t.h" md5 0xba8742313715e20e434cf6ccb2db98e3
	.file	18 "/usr/lib/gcc/x86_64-linux-gnu/9/../../../../include/c++/9" "cwchar"
	.file	19 "/usr/include/x86_64-linux-gnu/bits/types" "wint_t.h" md5 0xaa31b53ef28dc23152ceb41e2763ded3
	.file	20 "/usr/include" "wchar.h" md5 0x8900d9ecbbe40d052c41becfbc5b5531
	.file	21 "/usr/include/x86_64-linux-gnu/bits/types" "__FILE.h" md5 0x72a8fe90981f484acae7c6f3dfc5c2b7
	.file	22 "/usr/lib/gcc/x86_64-linux-gnu/9/../../../../include/c++/9/bits" "exception_ptr.h" md5 0xfe7ae408ceba5393ac112a19ac4d31d6
	.file	23 "/usr/lib/gcc/x86_64-linux-gnu/9/../../../../include/x86_64-linux-gnu/c++/9/bits" "c++config.h" md5 0x0db4afd045d7fd8d764af0b39aa9cadb
	.file	24 "/usr/lib/gcc/x86_64-linux-gnu/9/../../../../include/c++/9/ext" "new_allocator.h" md5 0x7a7a5c1442b3f00eec7605723fe47a02
	.file	25 "/usr/lib/gcc/x86_64-linux-gnu/9/../../../../include/c++/9" "clocale"
	.file	26 "/usr/include" "locale.h" md5 0x0cf373fc44eed8073800bdb9da87b72f
	.file	27 "/usr/include" "ctype.h" md5 0x36575f934ef4fe7e9d50a3cb17bd5c66
	.file	28 "/usr/lib/gcc/x86_64-linux-gnu/9/../../../../include/c++/9" "cctype"
	.file	29 "/usr/include" "stdlib.h" md5 0xf0db66726d35051e5af2525f5b33bd81
	.file	30 "/usr/lib/gcc/x86_64-linux-gnu/9/../../../../include/c++/9/bits" "std_abs.h"
	.file	31 "/usr/lib/gcc/x86_64-linux-gnu/9/../../../../include/c++/9" "cstdlib"
	.file	32 "/usr/include/x86_64-linux-gnu/bits/types" "FILE.h" md5 0x571f9fb6223c42439075fdde11a0de5d
	.file	33 "/usr/lib/gcc/x86_64-linux-gnu/9/../../../../include/c++/9" "cstdio"
	.file	34 "/usr/include/x86_64-linux-gnu/bits/types" "__fpos_t.h" md5 0x32de8bdaf3551a6c0a9394f9af4389ce
	.file	35 "/usr/include" "stdio.h" md5 0x5b917eded35ce2507d1e294bf8cb74d7
	.section	".note.GNU-stack","",@progbits
	.addrsig
	.addrsig_sym _Z6micro1PcS_
	.addrsig_sym _Z6micro2PcS_
	.addrsig_sym _Z6micro3PcS_
	.addrsig_sym atoi
	.addrsig_sym _ZNSt6chrono3_V212steady_clock3nowEv
	.addrsig_sym _ZNSt6chronomiINS_3_V212steady_clockENS_8durationIlSt5ratioILl1ELl1000000000EEEES6_EENSt11common_typeIJT0_T1_EE4typeERKNS_10time_pointIT_S8_EERKNSC_ISD_S9_EE
	.addrsig_sym printf
	.addrsig_sym _ZNKSt6chrono8durationIdSt5ratioILl1ELl1EEE5countEv
	.addrsig_sym fflush
	.addrsig_sym _ZNSt6chronomiIlSt5ratioILl1ELl1000000000EElS2_EENSt11common_typeIJNS_8durationIT_T0_EENS4_IT1_T2_EEEE4typeERKS7_RKSA_
	.addrsig_sym _ZNKSt6chrono10time_pointINS_3_V212steady_clockENS_8durationIlSt5ratioILl1ELl1000000000EEEEE16time_since_epochEv
	.addrsig_sym _ZNKSt6chrono8durationIlSt5ratioILl1ELl1000000000EEE5countEv
	.addrsig_sym _ZNSt6chrono13duration_castINS_8durationIdSt5ratioILl1ELl1EEEElS2_ILl1ELl1000000000EEEENSt9enable_ifIXsr13__is_durationIT_EE5valueES7_E4typeERKNS1_IT0_T1_EE
	.addrsig_sym _ZNSt6chrono20__duration_cast_implINS_8durationIdSt5ratioILl1ELl1EEEES2_ILl1ELl1000000000EEdLb1ELb0EE6__castIlS5_EES4_RKNS1_IT_T0_EE
	.addrsig_sym mask
	.addrsig_sym src
	.addrsig_sym dst
	.addrsig_sym stdout