	.section .text
.LNDBG_TX:
# mark_description "Intel(R) C++ Intel(R) 64 Compiler for applications running on Intel(R) 64, Version 19.0.1.144 Build 20181018";
# mark_description "";
# mark_description "-mavx -g -S";
	.file "t.cpp"
	.section .text._Z8printVecI7__m256iEvT_i, "xaG",@progbits,_Z8printVecI7__m256iEvT_i,comdat
..TXTST0:
.L_2__routine_start__Z8printVecI7__m256iEvT_i_0:
# -- Begin  _Z8printVecI7__m256iEvT_i
	.section .rodata, "a"
	.align 4
	.align 4
.L_2__STRING.0:
	.word	10
	.type	.L_2__STRING.0,@object
	.size	.L_2__STRING.0,2
	.space 2, 0x00 	# pad
	.align 4
.L_2__STRING.1:
	.long	2122789
	.type	.L_2__STRING.1,@object
	.size	.L_2__STRING.1,4
	.section .text._Z8printVecI7__m256iEvT_i, "xaG",@progbits,_Z8printVecI7__m256iEvT_i,comdat
# mark_begin;

	.weak _Z8printVecI7__m256iEvT_i
# --- printVec<__m256i>(__m256i, int)
_Z8printVecI7__m256iEvT_i:
# parameter 1(vec): %ymm0
# parameter 2(len): %edi
..B1.1:                         # Preds ..B1.0
                                # Execution count [0.00e+00]
	.cfi_startproc
	.cfi_personality 0x3,__gxx_personality_v0
..___tag_value__Z8printVecI7__m256iEvT_i.2:
..L3:
                                                          #6.34
..LN0:
	.file   1 "t.cpp"
	.loc    1  6  is_stmt 1
        pushq     %rbx                                          #6.34
	.cfi_def_cfa_offset 16
..LN1:
        movq      %rsp, %rbx                                    #6.34
	.cfi_def_cfa 3, 16
	.cfi_offset 3, -16
..LN2:
        andq      $-32, %rsp                                    #6.34
..LN3:
        pushq     %rbp                                          #6.34
..LN4:
        pushq     %rbp                                          #6.34
..LN5:
        movq      8(%rbx), %rbp                                 #6.34
..LN6:
        movq      %rbp, 8(%rsp)                                 #6.34
..LN7:
        movq      %rsp, %rbp                                    #6.34
	.cfi_escape 0x10, 0x06, 0x02, 0x76, 0x00
..LN8:
        subq      $112, %rsp                                    #6.34
..LN9:
        vmovdqu   %ymm0, -48(%rbp)                              #6.34
..LN10:
        movl      %edi, -64(%rbp)                               #6.34
..LN11:
	.loc    1  7  prologue_end  is_stmt 1
        movl      $.L_2__STRING.0, %eax                         #7.3
..LN12:
        vzeroupper                                              #7.3
..LN13:
        movq      %rax, %rdi                                    #7.3
..LN14:
        movl      $0, %eax                                      #7.3
..___tag_value__Z8printVecI7__m256iEvT_i.9:
..LN15:
        call      printf                                        #7.3
..___tag_value__Z8printVecI7__m256iEvT_i.10:
..LN16:
                                # LOE rbx rbp rsp r12 r13 r14 r15 rip eax
..B1.10:                        # Preds ..B1.1
                                # Execution count [0.00e+00]
..LN17:
        movl      %eax, -112(%rbp)                              #7.3
..LN18:
                                # LOE rbx rbp rsp r12 r13 r14 r15 rip
..B1.2:                         # Preds ..B1.10
                                # Execution count [0.00e+00]
..LN19:
	.loc    1  8  is_stmt 1
        movl      $0, -108(%rbp)                                #8.13
..LN20:
                                # LOE rbx rbp rsp r12 r13 r14 r15 rip
..B1.3:                         # Preds ..B1.4 ..B1.2
                                # Execution count [0.00e+00]
..LN21:
        movl      -108(%rbp), %eax                              #8.19
..LN22:
        movl      -64(%rbp), %edx                               #8.23
..LN23:
        cmpl      %edx, %eax                                    #8.23
..LN24:
        jl        ..B1.5        # Prob 50%                      #8.23
..LN25:
        jmp       ..B1.6        # Prob 100%                     #8.23
..LN26:
                                # LOE rbx rbp rsp r12 r13 r14 r15 rip
..B1.4:                         # Preds ..B1.11
                                # Execution count [0.00e+00]
..LN27:
        movl      $1, %eax                                      #8.28
..LN28:
        addl      -108(%rbp), %eax                              #8.28
..LN29:
        movl      %eax, -108(%rbp)                              #8.28
..LN30:
        jmp       ..B1.3        # Prob 100%                     #8.28
..LN31:
                                # LOE rbx rbp rsp r12 r13 r14 r15 rip
..B1.5:                         # Preds ..B1.3
                                # Execution count [0.00e+00]
..LN32:
	.loc    1  9  is_stmt 1
        vmovdqu   -48(%rbp), %ymm0                              #9.20
..LN33:
	.loc    1  11  is_stmt 1
        vmovaps   %xmm0, %xmm1                                  #11.1
..LN34:
        vmovdqu   %xmm1, -104(%rbp)                             #11.1
..LN35:
        vextractf128 $1, %ymm0, -88(%rbp)                       #11.1
..LN36:
	.loc    1  9  is_stmt 1
        movl      $.L_2__STRING.1, %eax                         #9.5
..LN37:
        lea       -104(%rbp), %rdx                              #9.5
..LN38:
        movl      -108(%rbp), %ecx                              #9.5
..LN39:
        movslq    %ecx, %rcx                                    #9.5
..LN40:
        imulq     $8, %rcx, %rcx                                #9.5
..LN41:
        addq      %rcx, %rdx                                    #9.5
..LN42:
        movq      (%rdx), %rdx                                  #9.5
..LN43:
        vzeroupper                                              #9.5
..LN44:
        movq      %rax, %rdi                                    #9.5
..LN45:
        movq      %rdx, %rsi                                    #9.5
..LN46:
        movl      $0, %eax                                      #9.5
..___tag_value__Z8printVecI7__m256iEvT_i.11:
..LN47:
        call      printf                                        #9.5
..___tag_value__Z8printVecI7__m256iEvT_i.12:
..LN48:
                                # LOE rbx rbp rsp r12 r13 r14 r15 rip eax
..B1.11:                        # Preds ..B1.5
                                # Execution count [0.00e+00]
..LN49:
        movl      %eax, -72(%rbp)                               #9.5
..LN50:
        jmp       ..B1.4        # Prob 100%                     #9.5
..LN51:
                                # LOE rbx rbp rsp r12 r13 r14 r15 rip
..B1.6:                         # Preds ..B1.3
                                # Execution count [0.00e+00]
..LN52:
	.loc    1  10  is_stmt 1
        movl      $.L_2__STRING.0, %eax                         #10.3
..LN53:
        vzeroupper                                              #10.3
..LN54:
        movq      %rax, %rdi                                    #10.3
..LN55:
        movl      $0, %eax                                      #10.3
..___tag_value__Z8printVecI7__m256iEvT_i.13:
..LN56:
        call      printf                                        #10.3
..___tag_value__Z8printVecI7__m256iEvT_i.14:
..LN57:
                                # LOE rbx rbp rsp r12 r13 r14 r15 rip eax
..B1.12:                        # Preds ..B1.6
                                # Execution count [0.00e+00]
..LN58:
        movl      %eax, -68(%rbp)                               #10.3
..LN59:
                                # LOE rbx rbp rsp r12 r13 r14 r15 rip
..B1.7:                         # Preds ..B1.12
                                # Execution count [0.00e+00]
..LN60:
	.loc    1  11  is_stmt 1
        vzeroupper                                              #11.1
..LN61:
	.loc    1  11  epilogue_begin  is_stmt 1
        leave                                                   #11.1
	.cfi_restore 6
..LN62:
        movq      %rbx, %rsp                                    #11.1
..LN63:
        popq      %rbx                                          #11.1
	.cfi_def_cfa 7, 8
	.cfi_restore 3
..LN64:
        ret                                                     #11.1
..LN65:
                                # LOE
..LN66:
	.cfi_endproc
# mark_end;
	.type	_Z8printVecI7__m256iEvT_i,@function
	.size	_Z8printVecI7__m256iEvT_i,.-_Z8printVecI7__m256iEvT_i
..LN_Z8printVecI7__m256iEvT_i.67:
.LN_Z8printVecI7__m256iEvT_i:
	.data
	.file   2 "/opt/intel/system_studio_2019/compilers_and_libraries_2019.1.144/linux/compiler/include/icc/immintrin.h"
# -- End  _Z8printVecI7__m256iEvT_i
	.text
..TXTST1:
.L_2__routine_start__Z7shiftELv_1:
# -- Begin  _Z7shiftELv
	.section .rodata, "a"
	.space 24, 0x00 	# pad
	.align 32
.L_2il0floatpacket.0:
	.long	0x00000001,0x00000001,0x00000001,0x00000001,0x00000001,0x00000001,0x00000001,0x00000001
	.type	.L_2il0floatpacket.0,@object
	.size	.L_2il0floatpacket.0,32
	.text
# mark_begin;

	.globl _Z7shiftELv
# --- shiftEL()
_Z7shiftELv:
..B2.1:                         # Preds ..B2.0
                                # Execution count [0.00e+00]
	.cfi_startproc
	.cfi_personality 0x3,__gxx_personality_v0
..___tag_value__Z7shiftELv.23:
..L24:
                                                         #13.15
..LN68:
	.loc    1  13  is_stmt 1
        pushq     %rbx                                          #13.15
	.cfi_def_cfa_offset 16
..LN69:
        movq      %rsp, %rbx                                    #13.15
	.cfi_def_cfa 3, 16
	.cfi_offset 3, -16
..LN70:
        andq      $-32, %rsp                                    #13.15
..LN71:
        pushq     %rbp                                          #13.15
..LN72:
        pushq     %rbp                                          #13.15
..LN73:
        movq      8(%rbx), %rbp                                 #13.15
..LN74:
        movq      %rbp, 8(%rsp)                                 #13.15
..LN75:
        movq      %rsp, %rbp                                    #13.15
	.cfi_escape 0x10, 0x06, 0x02, 0x76, 0x00
..LN76:
        subq      $496, %rsp                                    #13.15
..LN77:
	.loc    1  15  prologue_end  is_stmt 1
        vmovdqu   .L_2il0floatpacket.0(%rip), %ymm0             #15.21
..LN78:
        vmovdqu   %ymm0, -400(%rbp)                             #15.21
..LN79:
        vmovdqu   -400(%rbp), %ymm0                             #15.21
..LN80:
        vmovdqu   %ymm0, -368(%rbp)                             #15.19
..LN81:
	.loc    1  16  is_stmt 1
        vmovdqu   -368(%rbp), %ymm0                             #16.2
..LN82:
        movl      $8, %eax                                      #16.2
..LN83:
        movl      %eax, %edi                                    #16.2
..___tag_value__Z7shiftELv.30:
..LN84:
#       printVec<__m256i>(__m256i, int)
        call      _Z8printVecI7__m256iEvT_i                     #16.2
..___tag_value__Z7shiftELv.31:
..LN85:
                                # LOE rbx rbp rsp r12 r13 r14 r15 rip
..B2.2:                         # Preds ..B2.1
                                # Execution count [0.00e+00]
..LN86:
	.loc    1  18  is_stmt 1
        lea       -496(%rbp), %rax                              #18.12
..LN87:
        movl      $mem.226.0, %edx                              #18.12
..LN88:
        movl      $32, %ecx                                     #18.12
..LN89:
        vzeroupper                                              #18.12
..LN90:
        movq      %rax, %rdi                                    #18.12
..LN91:
        movq      %rdx, %rsi                                    #18.12
..LN92:
        movl      %ecx, %eax                                    #18.12
..LN93:
        shrq      $2, %rcx                                      #18.12
..LN94:
        rep                                                     #18.12
..LN95:
        movsl                                                   #18.12
..LN96:
        movl      %eax, %ecx                                    #18.12
..LN97:
        andl      $3, %ecx                                      #18.12
..LN98:
        rep                                                     #18.12
..LN99:
        movsb                                                   #18.12
..LN100:
                                # LOE rbx rbp rsp r12 r13 r14 r15 rip
..B2.3:                         # Preds ..B2.2
                                # Execution count [0.00e+00]
..LN101:
	.loc    1  19  is_stmt 1
        lea       -496(%rbp), %rax                              #19.20
..LN102:
        vmovdqu   -368(%rbp), %ymm0                             #19.20
..LN103:
        vpmaskmovd (%rax), %ymm0, %ymm0                         #19.20
..LN104:
        vmovdqu   %ymm0, -336(%rbp)                             #19.20
..LN105:
        vmovdqu   -336(%rbp), %ymm0                             #19.20
..LN106:
        vmovdqu   %ymm0, -304(%rbp)                             #19.18
..LN107:
	.loc    1  20  is_stmt 1
        vmovdqu   -304(%rbp), %ymm0                             #20.2
..LN108:
        movl      $8, %eax                                      #20.2
..LN109:
        movl      %eax, %edi                                    #20.2
..___tag_value__Z7shiftELv.32:
..LN110:
#       printVec<__m256i>(__m256i, int)
        call      _Z8printVecI7__m256iEvT_i                     #20.2
..___tag_value__Z7shiftELv.33:
..LN111:
                                # LOE rbx rbp rsp r12 r13 r14 r15 rip
..B2.4:                         # Preds ..B2.3
                                # Execution count [0.00e+00]
..LN112:
	.loc    1  22  is_stmt 1
        lea       -464(%rbp), %rax                              #22.13
..LN113:
        movl      $mask.226.0, %edx                             #22.13
..LN114:
        movl      $32, %ecx                                     #22.13
..LN115:
        vzeroupper                                              #22.13
..LN116:
        movq      %rax, %rdi                                    #22.13
..LN117:
        movq      %rdx, %rsi                                    #22.13
..LN118:
        movl      %ecx, %eax                                    #22.13
..LN119:
        shrq      $2, %rcx                                      #22.13
..LN120:
        rep                                                     #22.13
..LN121:
        movsl                                                   #22.13
..LN122:
        movl      %eax, %ecx                                    #22.13
..LN123:
        andl      $3, %ecx                                      #22.13
..LN124:
        rep                                                     #22.13
..LN125:
        movsb                                                   #22.13
..LN126:
                                # LOE rbx rbp rsp r12 r13 r14 r15 rip
..B2.5:                         # Preds ..B2.4
                                # Execution count [0.00e+00]
..LN127:
	.loc    1  23  is_stmt 1
        lea       -464(%rbp), %rax                              #23.21
..LN128:
        vmovdqu   -368(%rbp), %ymm0                             #23.21
..LN129:
        vpmaskmovd (%rax), %ymm0, %ymm0                         #23.21
..LN130:
        vmovdqu   %ymm0, -272(%rbp)                             #23.21
..LN131:
        vmovdqu   -272(%rbp), %ymm0                             #23.21
..LN132:
        vmovdqu   %ymm0, -240(%rbp)                             #23.19
..LN133:
	.loc    1  25  is_stmt 1
        lea       -432(%rbp), %rax                              #25.17
..LN134:
        movl      $shuf_idx.226.0, %edx                         #25.17
..LN135:
        movl      $32, %ecx                                     #25.17
..LN136:
        vzeroupper                                              #25.17
..LN137:
        movq      %rax, %rdi                                    #25.17
..LN138:
        movq      %rdx, %rsi                                    #25.17
..LN139:
        movl      %ecx, %eax                                    #25.17
..LN140:
        shrq      $2, %rcx                                      #25.17
..LN141:
        rep                                                     #25.17
..LN142:
        movsl                                                   #25.17
..LN143:
        movl      %eax, %ecx                                    #25.17
..LN144:
        andl      $3, %ecx                                      #25.17
..LN145:
        rep                                                     #25.17
..LN146:
        movsb                                                   #25.17
..LN147:
                                # LOE rbx rbp rsp r12 r13 r14 r15 rip
..B2.6:                         # Preds ..B2.5
                                # Execution count [0.00e+00]
..LN148:
	.loc    1  26  is_stmt 1
        lea       -432(%rbp), %rax                              #26.25
..LN149:
        vmovdqu   -368(%rbp), %ymm0                             #26.25
..LN150:
        vpmaskmovd (%rax), %ymm0, %ymm0                         #26.25
..LN151:
        vmovdqu   %ymm0, -208(%rbp)                             #26.25
..LN152:
        vmovdqu   -208(%rbp), %ymm0                             #26.25
..LN153:
        vmovdqu   %ymm0, -176(%rbp)                             #26.23
..LN154:
	.loc    1  28  is_stmt 1
        vmovdqu   -304(%rbp), %ymm0                             #28.16
..LN155:
        vmovdqu   -176(%rbp), %ymm1                             #28.16
..LN156:
        vpermd    %ymm0, %ymm1, %ymm0                           #28.16
..LN157:
        vmovdqu   %ymm0, -144(%rbp)                             #28.16
..LN158:
        vmovdqu   -144(%rbp), %ymm0                             #28.16
..LN159:
        vmovdqu   %ymm0, -112(%rbp)                             #28.14
..LN160:
	.loc    1  29  is_stmt 1
        vmovdqu   -368(%rbp), %ymm0                             #29.16
..LN161:
        movl      $255, %eax                                    #29.16
..LN162:
        vmovdqu   -112(%rbp), %ymm1                             #29.16
..LN163:
        vmovdqu   -240(%rbp), %ymm2                             #29.16
..LN164:
        kmovw     %eax, %k1                                     #29.16
..LN165:
        vpandd    %ymm2, %ymm1, %ymm0{%k1}                      #29.16
..LN166:
        vmovdqu   %ymm0, -80(%rbp)                              #29.16
..LN167:
        vmovdqu   -80(%rbp), %ymm0                              #29.16
..LN168:
        vmovdqu   %ymm0, -48(%rbp)                              #29.14
..LN169:
	.loc    1  31  is_stmt 1
        vmovdqu   -48(%rbp), %ymm0                              #31.2
..LN170:
        movl      $8, %eax                                      #31.2
..LN171:
        movl      %eax, %edi                                    #31.2
..___tag_value__Z7shiftELv.34:
..LN172:
#       printVec<__m256i>(__m256i, int)
        call      _Z8printVecI7__m256iEvT_i                     #31.2
..___tag_value__Z7shiftELv.35:
..LN173:
                                # LOE rbx rbp rsp r12 r13 r14 r15 rip
..B2.7:                         # Preds ..B2.6
                                # Execution count [0.00e+00]
..LN174:
	.loc    1  32  is_stmt 1
        lea       -48(%rbp), %rax                               #32.13
..LN175:
        addq      $16, %rax                                     #32.13
..LN176:
        movl      (%rax), %eax                                  #32.13
..LN177:
        vzeroupper                                              #32.13
..LN178:
	.loc    1  32  epilogue_begin  is_stmt 1
        leave                                                   #32.13
	.cfi_restore 6
..LN179:
        movq      %rbx, %rsp                                    #32.13
..LN180:
        popq      %rbx                                          #32.13
	.cfi_def_cfa 7, 8
	.cfi_restore 3
..LN181:
        ret                                                     #32.13
..LN182:
                                # LOE
..LN183:
	.cfi_endproc
# mark_end;
	.type	_Z7shiftELv,@function
	.size	_Z7shiftELv,.-_Z7shiftELv
..LN_Z7shiftELv.184:
.LN_Z7shiftELv:
	.section .rodata, "a"
	.align 4
mem.226.0:
	.long	10
	.long	20
	.long	30
	.long	40
	.long	50
	.long	60
	.long	70
	.long	80
	.align 4
mask.226.0:
	.long	0
	.long	0
	.long	1
	.long	1
	.long	1
	.long	1
	.long	1
	.long	1
	.align 4
shuf_idx.226.0:
	.long	0
	.long	0
	.long	0
	.long	1
	.long	2
	.long	3
	.long	4
	.long	5
	.data
# -- End  _Z7shiftELv
	.text
.L_2__routine_start_main_2:
# -- Begin  main
	.text
# mark_begin;

	.globl main
# --- main()
main:
..B3.1:                         # Preds ..B3.0
                                # Execution count [0.00e+00]
	.cfi_startproc
	.cfi_personality 0x3,__gxx_personality_v0
..___tag_value_main.43:
..L44:
                                                         #35.12
..LN185:
	.loc    1  35  is_stmt 1
        pushq     %rbp                                          #35.12
	.cfi_def_cfa_offset 16
..LN186:
        movq      %rsp, %rbp                                    #35.12
	.cfi_def_cfa 6, 16
	.cfi_offset 6, -16
..LN187:
        subq      $16, %rsp                                     #35.12
..___tag_value_main.49:
..LN188:
	.loc    1  36  prologue_end  is_stmt 1
#       shiftEL()
        call      _Z7shiftELv                                   #36.10
..___tag_value_main.50:
..LN189:
                                # LOE rbx rbp rsp r12 r13 r14 r15 rip eax
..B3.5:                         # Preds ..B3.1
                                # Execution count [0.00e+00]
..LN190:
        movl      %eax, -16(%rbp)                               #36.10
..LN191:
                                # LOE rbx rbp rsp r12 r13 r14 r15 rip
..B3.2:                         # Preds ..B3.5
                                # Execution count [0.00e+00]
..LN192:
        movl      -16(%rbp), %eax                               #36.10
..LN193:
	.loc    1  36  epilogue_begin  is_stmt 1
        leave                                                   #36.10
	.cfi_restore 6
..LN194:
        ret                                                     #36.10
..LN195:
                                # LOE
..LN196:
	.cfi_endproc
# mark_end;
	.type	main,@function
	.size	main,.-main
..LNmain.197:
.LNmain:
	.data
# -- End  main
	.data
	.section .note.GNU-stack, ""
// -- Begin DWARF2 SEGMENT .debug_info
	.section .text
.LNDBG_TXe:
# End
