
./a.out:     file format elf64-x86-64


Disassembly of section .init:

0000000000001000 <_init>:
    1000:	f3 0f 1e fa          	endbr64 
    1004:	48 83 ec 08          	sub    $0x8,%rsp
    1008:	48 8b 05 e1 2f 00 00 	mov    0x2fe1(%rip),%rax        # 3ff0 <__gmon_start__>
    100f:	48 85 c0             	test   %rax,%rax
    1012:	74 02                	je     1016 <_init+0x16>
    1014:	ff d0                	callq  *%rax
    1016:	48 83 c4 08          	add    $0x8,%rsp
    101a:	c3                   	retq   

Disassembly of section .plt:

0000000000001020 <.plt>:
    1020:	ff 35 72 2f 00 00    	pushq  0x2f72(%rip)        # 3f98 <_GLOBAL_OFFSET_TABLE_+0x8>
    1026:	f2 ff 25 73 2f 00 00 	bnd jmpq *0x2f73(%rip)        # 3fa0 <_GLOBAL_OFFSET_TABLE_+0x10>
    102d:	0f 1f 00             	nopl   (%rax)
    1030:	f3 0f 1e fa          	endbr64 
    1034:	68 00 00 00 00       	pushq  $0x0
    1039:	f2 e9 e1 ff ff ff    	bnd jmpq 1020 <.plt>
    103f:	90                   	nop
    1040:	f3 0f 1e fa          	endbr64 
    1044:	68 01 00 00 00       	pushq  $0x1
    1049:	f2 e9 d1 ff ff ff    	bnd jmpq 1020 <.plt>
    104f:	90                   	nop
    1050:	f3 0f 1e fa          	endbr64 
    1054:	68 02 00 00 00       	pushq  $0x2
    1059:	f2 e9 c1 ff ff ff    	bnd jmpq 1020 <.plt>
    105f:	90                   	nop
    1060:	f3 0f 1e fa          	endbr64 
    1064:	68 03 00 00 00       	pushq  $0x3
    1069:	f2 e9 b1 ff ff ff    	bnd jmpq 1020 <.plt>
    106f:	90                   	nop
    1070:	f3 0f 1e fa          	endbr64 
    1074:	68 04 00 00 00       	pushq  $0x4
    1079:	f2 e9 a1 ff ff ff    	bnd jmpq 1020 <.plt>
    107f:	90                   	nop
    1080:	f3 0f 1e fa          	endbr64 
    1084:	68 05 00 00 00       	pushq  $0x5
    1089:	f2 e9 91 ff ff ff    	bnd jmpq 1020 <.plt>
    108f:	90                   	nop

Disassembly of section .plt.got:

0000000000001090 <__cxa_finalize@plt>:
    1090:	f3 0f 1e fa          	endbr64 
    1094:	f2 ff 25 3d 2f 00 00 	bnd jmpq *0x2f3d(%rip)        # 3fd8 <__cxa_finalize@GLIBC_2.2.5>
    109b:	0f 1f 44 00 00       	nopl   0x0(%rax,%rax,1)

Disassembly of section .plt.sec:

00000000000010a0 <printf@plt>:
    10a0:	f3 0f 1e fa          	endbr64 
    10a4:	f2 ff 25 fd 2e 00 00 	bnd jmpq *0x2efd(%rip)        # 3fa8 <printf@GLIBC_2.2.5>
    10ab:	0f 1f 44 00 00       	nopl   0x0(%rax,%rax,1)

00000000000010b0 <__stack_chk_fail@plt>:
    10b0:	f3 0f 1e fa          	endbr64 
    10b4:	f2 ff 25 f5 2e 00 00 	bnd jmpq *0x2ef5(%rip)        # 3fb0 <__stack_chk_fail@GLIBC_2.4>
    10bb:	0f 1f 44 00 00       	nopl   0x0(%rax,%rax,1)

00000000000010c0 <_ZNSt6chrono3_V212steady_clock3nowEv@plt>:
    10c0:	f3 0f 1e fa          	endbr64 
    10c4:	f2 ff 25 ed 2e 00 00 	bnd jmpq *0x2eed(%rip)        # 3fb8 <_ZNSt6chrono3_V212steady_clock3nowEv@GLIBCXX_3.4.19>
    10cb:	0f 1f 44 00 00       	nopl   0x0(%rax,%rax,1)

00000000000010d0 <putchar@plt>:
    10d0:	f3 0f 1e fa          	endbr64 
    10d4:	f2 ff 25 e5 2e 00 00 	bnd jmpq *0x2ee5(%rip)        # 3fc0 <putchar@GLIBC_2.2.5>
    10db:	0f 1f 44 00 00       	nopl   0x0(%rax,%rax,1)

00000000000010e0 <fprintf@plt>:
    10e0:	f3 0f 1e fa          	endbr64 
    10e4:	f2 ff 25 dd 2e 00 00 	bnd jmpq *0x2edd(%rip)        # 3fc8 <fprintf@GLIBC_2.2.5>
    10eb:	0f 1f 44 00 00       	nopl   0x0(%rax,%rax,1)

00000000000010f0 <atoi@plt>:
    10f0:	f3 0f 1e fa          	endbr64 
    10f4:	f2 ff 25 d5 2e 00 00 	bnd jmpq *0x2ed5(%rip)        # 3fd0 <atoi@GLIBC_2.2.5>
    10fb:	0f 1f 44 00 00       	nopl   0x0(%rax,%rax,1)

Disassembly of section .text:

0000000000001100 <_start>:
    1100:	f3 0f 1e fa          	endbr64 
    1104:	31 ed                	xor    %ebp,%ebp
    1106:	49 89 d1             	mov    %rdx,%r9
    1109:	5e                   	pop    %rsi
    110a:	48 89 e2             	mov    %rsp,%rdx
    110d:	48 83 e4 f0          	and    $0xfffffffffffffff0,%rsp
    1111:	50                   	push   %rax
    1112:	54                   	push   %rsp
    1113:	4c 8d 05 66 08 00 00 	lea    0x866(%rip),%r8        # 1980 <__libc_csu_fini>
    111a:	48 8d 0d ef 07 00 00 	lea    0x7ef(%rip),%rcx        # 1910 <__libc_csu_init>
    1121:	48 8d 3d 4c 01 00 00 	lea    0x14c(%rip),%rdi        # 1274 <main>
    1128:	ff 15 ba 2e 00 00    	callq  *0x2eba(%rip)        # 3fe8 <__libc_start_main@GLIBC_2.2.5>
    112e:	f4                   	hlt    
    112f:	90                   	nop

0000000000001130 <deregister_tm_clones>:
    1130:	48 8d 3d 69 2f 00 00 	lea    0x2f69(%rip),%rdi        # 40a0 <stderr@@GLIBC_2.2.5>
    1137:	48 8d 05 62 2f 00 00 	lea    0x2f62(%rip),%rax        # 40a0 <stderr@@GLIBC_2.2.5>
    113e:	48 39 f8             	cmp    %rdi,%rax
    1141:	74 15                	je     1158 <deregister_tm_clones+0x28>
    1143:	48 8b 05 96 2e 00 00 	mov    0x2e96(%rip),%rax        # 3fe0 <_ITM_deregisterTMCloneTable>
    114a:	48 85 c0             	test   %rax,%rax
    114d:	74 09                	je     1158 <deregister_tm_clones+0x28>
    114f:	ff e0                	jmpq   *%rax
    1151:	0f 1f 80 00 00 00 00 	nopl   0x0(%rax)
    1158:	c3                   	retq   
    1159:	0f 1f 80 00 00 00 00 	nopl   0x0(%rax)

0000000000001160 <register_tm_clones>:
    1160:	48 8d 3d 39 2f 00 00 	lea    0x2f39(%rip),%rdi        # 40a0 <stderr@@GLIBC_2.2.5>
    1167:	48 8d 35 32 2f 00 00 	lea    0x2f32(%rip),%rsi        # 40a0 <stderr@@GLIBC_2.2.5>
    116e:	48 29 fe             	sub    %rdi,%rsi
    1171:	48 89 f0             	mov    %rsi,%rax
    1174:	48 c1 ee 3f          	shr    $0x3f,%rsi
    1178:	48 c1 f8 03          	sar    $0x3,%rax
    117c:	48 01 c6             	add    %rax,%rsi
    117f:	48 d1 fe             	sar    %rsi
    1182:	74 14                	je     1198 <register_tm_clones+0x38>
    1184:	48 8b 05 6d 2e 00 00 	mov    0x2e6d(%rip),%rax        # 3ff8 <_ITM_registerTMCloneTable>
    118b:	48 85 c0             	test   %rax,%rax
    118e:	74 08                	je     1198 <register_tm_clones+0x38>
    1190:	ff e0                	jmpq   *%rax
    1192:	66 0f 1f 44 00 00    	nopw   0x0(%rax,%rax,1)
    1198:	c3                   	retq   
    1199:	0f 1f 80 00 00 00 00 	nopl   0x0(%rax)

00000000000011a0 <__do_global_dtors_aux>:
    11a0:	f3 0f 1e fa          	endbr64 
    11a4:	80 3d fd 2e 00 00 00 	cmpb   $0x0,0x2efd(%rip)        # 40a8 <completed.8060>
    11ab:	75 2b                	jne    11d8 <__do_global_dtors_aux+0x38>
    11ad:	55                   	push   %rbp
    11ae:	48 83 3d 22 2e 00 00 	cmpq   $0x0,0x2e22(%rip)        # 3fd8 <__cxa_finalize@GLIBC_2.2.5>
    11b5:	00 
    11b6:	48 89 e5             	mov    %rsp,%rbp
    11b9:	74 0c                	je     11c7 <__do_global_dtors_aux+0x27>
    11bb:	48 8b 3d 46 2e 00 00 	mov    0x2e46(%rip),%rdi        # 4008 <__dso_handle>
    11c2:	e8 c9 fe ff ff       	callq  1090 <__cxa_finalize@plt>
    11c7:	e8 64 ff ff ff       	callq  1130 <deregister_tm_clones>
    11cc:	c6 05 d5 2e 00 00 01 	movb   $0x1,0x2ed5(%rip)        # 40a8 <completed.8060>
    11d3:	5d                   	pop    %rbp
    11d4:	c3                   	retq   
    11d5:	0f 1f 00             	nopl   (%rax)
    11d8:	c3                   	retq   
    11d9:	0f 1f 80 00 00 00 00 	nopl   0x0(%rax)

00000000000011e0 <frame_dummy>:
    11e0:	f3 0f 1e fa          	endbr64 
    11e4:	e9 77 ff ff ff       	jmpq   1160 <register_tm_clones>

00000000000011e9 <_Z11swap_lanes1PcS_i>:
    11e9:	f3 0f 1e fa          	endbr64 
    11ed:	55                   	push   %rbp
    11ee:	48 89 e5             	mov    %rsp,%rbp
    11f1:	48 89 7d f8          	mov    %rdi,-0x8(%rbp)
    11f5:	48 89 75 f0          	mov    %rsi,-0x10(%rbp)
    11f9:	89 55 ec             	mov    %edx,-0x14(%rbp)
    11fc:	48 8b 45 f8          	mov    -0x8(%rbp),%rax
    1200:	48 8b 55 f0          	mov    -0x10(%rbp),%rdx

    1204:	62 f1 fe 48 6f 15 12 	vmovdqu64 0x2e12(%rip),%zmm2        # 4020 <shuffle1>
    120b:	2e 00 00 
    120e:	62 f2 ed 48 36 0a    	vpermq (%rdx),%zmm2,%zmm1
    1214:	62 f1 fe 48 7f 08    	vmovdqu64 %zmm1,(%rax)

    121a:	8b 45 ec             	mov    -0x14(%rbp),%eax
    121d:	48 63 d0             	movslq %eax,%rdx
    1220:	48 8b 45 f8          	mov    -0x8(%rbp),%rax
    1224:	48 01 d0             	add    %rdx,%rax
    1227:	0f b6 00             	movzbl (%rax),%eax
    122a:	5d                   	pop    %rbp
    122b:	c3                   	retq   

000000000000122c <_Z11swap_lanes2PcS_i>:
    122c:	f3 0f 1e fa          	endbr64 
    1230:	55                   	push   %rbp
    1231:	48 89 e5             	mov    %rsp,%rbp
    1234:	48 89 7d f8          	mov    %rdi,-0x8(%rbp)
    1238:	48 89 75 f0          	mov    %rsi,-0x10(%rbp)
    123c:	89 55 ec             	mov    %edx,-0x14(%rbp)
    123f:	48 8b 45 f8          	mov    -0x8(%rbp),%rax
    1243:	48 8b 55 f0          	mov    -0x10(%rbp),%rdx

    1247:	62 f3 fd 48 00 0a 44 	vpermq $0x44,(%rdx),%zmm1
    124e:	62 f3 fd 48 3b c9 01 	vextracti64x4 $0x1,%zmm1,%ymm1
    1255:	62 f3 f5 48 3a c9 01 	vinserti64x4 $0x1,%ymm1,%zmm1,%zmm1
    125c:	62 f1 fe 48 7f 08    	vmovdqu64 %zmm1,(%rax)

    1262:	8b 45 ec             	mov    -0x14(%rbp),%eax
    1265:	48 63 d0             	movslq %eax,%rdx
    1268:	48 8b 45 f8          	mov    -0x8(%rbp),%rax
    126c:	48 01 d0             	add    %rdx,%rax
    126f:	0f b6 00             	movzbl (%rax),%eax
    1272:	5d                   	pop    %rbp
    1273:	c3                   	retq   

0000000000001274 <main>:
    1274:	f3 0f 1e fa          	endbr64 
    1278:	55                   	push   %rbp
    1279:	48 89 e5             	mov    %rsp,%rbp
    127c:	48 81 ec 00 01 00 00 	sub    $0x100,%rsp
    1283:	89 bd 0c ff ff ff    	mov    %edi,-0xf4(%rbp)
    1289:	48 89 b5 00 ff ff ff 	mov    %rsi,-0x100(%rbp)
    1290:	64 48 8b 04 25 28 00 	mov    %fs:0x28,%rax
    1297:	00 00 
    1299:	48 89 45 f8          	mov    %rax,-0x8(%rbp)
    129d:	31 c0                	xor    %eax,%eax
    129f:	83 bd 0c ff ff ff 01 	cmpl   $0x1,-0xf4(%rbp)
    12a6:	7f 20                	jg     12c8 <main+0x54>
    12a8:	48 8b 05 f1 2d 00 00 	mov    0x2df1(%rip),%rax        # 40a0 <stderr@@GLIBC_2.2.5>
    12af:	48 8d 35 52 0d 00 00 	lea    0xd52(%rip),%rsi        # 2008 <_IO_stdin_used+0x8>
    12b6:	48 89 c7             	mov    %rax,%rdi
    12b9:	b8 00 00 00 00       	mov    $0x0,%eax
    12be:	e8 1d fe ff ff       	callq  10e0 <fprintf@plt>
    12c3:	e9 ad 03 00 00       	jmpq   1675 <main+0x401>
    12c8:	48 8b 85 00 ff ff ff 	mov    -0x100(%rbp),%rax
    12cf:	48 83 c0 08          	add    $0x8,%rax
    12d3:	48 8b 00             	mov    (%rax),%rax
    12d6:	48 89 c7             	mov    %rax,%rdi
    12d9:	e8 12 fe ff ff       	callq  10f0 <atoi@plt>
    12de:	89 85 3c ff ff ff    	mov    %eax,-0xc4(%rbp)
    12e4:	c7 85 1c ff ff ff 00 	movl   $0x0,-0xe4(%rbp)
    12eb:	00 00 00 
    12ee:	83 bd 1c ff ff ff 3f 	cmpl   $0x3f,-0xe4(%rbp)
    12f5:	7f 1d                	jg     1314 <main+0xa0>
    12f7:	8b 85 1c ff ff ff    	mov    -0xe4(%rbp),%eax
    12fd:	89 c2                	mov    %eax,%edx
    12ff:	8b 85 1c ff ff ff    	mov    -0xe4(%rbp),%eax
    1305:	48 98                	cltq   
    1307:	88 54 05 b0          	mov    %dl,-0x50(%rbp,%rax,1)
    130b:	83 85 1c ff ff ff 01 	addl   $0x1,-0xe4(%rbp)
    1312:	eb da                	jmp    12ee <main+0x7a>
    1314:	48 8d 3d 03 0d 00 00 	lea    0xd03(%rip),%rdi        # 201e <_IO_stdin_used+0x1e>
    131b:	b8 00 00 00 00       	mov    $0x0,%eax
    1320:	e8 7b fd ff ff       	callq  10a0 <printf@plt>
    1325:	c7 85 20 ff ff ff 00 	movl   $0x0,-0xe0(%rbp)
    132c:	00 00 00 
    132f:	83 bd 20 ff ff ff 0f 	cmpl   $0xf,-0xe0(%rbp)
    1336:	7f 2c                	jg     1364 <main+0xf0>
    1338:	8b 85 20 ff ff ff    	mov    -0xe0(%rbp),%eax
    133e:	48 98                	cltq   
    1340:	0f b6 44 05 b0       	movzbl -0x50(%rbp,%rax,1),%eax
    1345:	0f be c0             	movsbl %al,%eax
    1348:	89 c6                	mov    %eax,%esi
    134a:	48 8d 3d d4 0c 00 00 	lea    0xcd4(%rip),%rdi        # 2025 <_IO_stdin_used+0x25>
    1351:	b8 00 00 00 00       	mov    $0x0,%eax
    1356:	e8 45 fd ff ff       	callq  10a0 <printf@plt>
    135b:	83 85 20 ff ff ff 01 	addl   $0x1,-0xe0(%rbp)
    1362:	eb cb                	jmp    132f <main+0xbb>
    1364:	bf 0a 00 00 00       	mov    $0xa,%edi
    1369:	e8 62 fd ff ff       	callq  10d0 <putchar@plt>
    136e:	83 bd 3c ff ff ff 00 	cmpl   $0x0,-0xc4(%rbp)
    1375:	0f 85 7d 01 00 00    	jne    14f8 <main+0x284>
    137b:	c7 85 24 ff ff ff 00 	movl   $0x0,-0xdc(%rbp)
    1382:	00 00 00 
    1385:	81 bd 24 ff ff ff 7f 	cmpl   $0x55d4a7f,-0xdc(%rbp)
    138c:	4a 5d 05 
    138f:	7f 2a                	jg     13bb <main+0x147>
    1391:	8b 85 24 ff ff ff    	mov    -0xdc(%rbp),%eax
    1397:	83 e0 3f             	and    $0x3f,%eax
    139a:	89 c2                	mov    %eax,%edx
    139c:	48 8d 4d b0          	lea    -0x50(%rbp),%rcx
    13a0:	48 8d 85 70 ff ff ff 	lea    -0x90(%rbp),%rax
    13a7:	48 89 ce             	mov    %rcx,%rsi
    13aa:	48 89 c7             	mov    %rax,%rdi
    13ad:	e8 37 fe ff ff       	callq  11e9 <_Z11swap_lanes1PcS_i>
    13b2:	83 85 24 ff ff ff 01 	addl   $0x1,-0xdc(%rbp)
    13b9:	eb ca                	jmp    1385 <main+0x111>
    13bb:	48 c7 85 60 ff ff ff 	movq   $0x0,-0xa0(%rbp)
    13c2:	00 00 00 00 
    13c6:	e8 f5 fc ff ff       	callq  10c0 <_ZNSt6chrono3_V212steady_clock3nowEv@plt>
    13cb:	48 89 85 40 ff ff ff 	mov    %rax,-0xc0(%rbp)
    13d2:	c7 85 28 ff ff ff 00 	movl   $0x0,-0xd8(%rbp)
    13d9:	00 00 00 
    13dc:	81 bd 28 ff ff ff 7f 	cmpl   $0x55d4a7f,-0xd8(%rbp)
    13e3:	4a 5d 05 
    13e6:	7f 35                	jg     141d <main+0x1a9>
    13e8:	8b 85 28 ff ff ff    	mov    -0xd8(%rbp),%eax
    13ee:	83 e0 3f             	and    $0x3f,%eax
    13f1:	89 c2                	mov    %eax,%edx
    13f3:	48 8d 4d b0          	lea    -0x50(%rbp),%rcx
    13f7:	48 8d 85 70 ff ff ff 	lea    -0x90(%rbp),%rax
    13fe:	48 89 ce             	mov    %rcx,%rsi
    1401:	48 89 c7             	mov    %rax,%rdi
    1404:	e8 e0 fd ff ff       	callq  11e9 <_Z11swap_lanes1PcS_i>
    1409:	48 0f be c0          	movsbq %al,%rax
    140d:	48 01 85 60 ff ff ff 	add    %rax,-0xa0(%rbp)
    1414:	83 85 28 ff ff ff 01 	addl   $0x1,-0xd8(%rbp)
    141b:	eb bf                	jmp    13dc <main+0x168>
    141d:	e8 9e fc ff ff       	callq  10c0 <_ZNSt6chrono3_V212steady_clock3nowEv@plt>
    1422:	48 89 85 48 ff ff ff 	mov    %rax,-0xb8(%rbp)
    1429:	48 8d 95 40 ff ff ff 	lea    -0xc0(%rbp),%rdx
    1430:	48 8d 85 48 ff ff ff 	lea    -0xb8(%rbp),%rax
    1437:	48 89 d6             	mov    %rdx,%rsi
    143a:	48 89 c7             	mov    %rax,%rdi
    143d:	e8 e5 02 00 00       	callq  1727 <_ZNSt6chronomiINS_3_V212steady_clockENS_8durationIlSt5ratioILl1ELl1000000000EEEES6_EENSt11common_typeIJT0_T1_EE4typeERKNS_10time_pointIT_S8_EERKNSC_ISD_S9_EE>
    1442:	48 89 85 58 ff ff ff 	mov    %rax,-0xa8(%rbp)
    1449:	48 8d 95 58 ff ff ff 	lea    -0xa8(%rbp),%rdx
    1450:	48 8d 85 50 ff ff ff 	lea    -0xb0(%rbp),%rax
    1457:	48 89 d6             	mov    %rdx,%rsi
    145a:	48 89 c7             	mov    %rax,%rdi
    145d:	e8 62 02 00 00       	callq  16c4 <_ZNSt6chrono8durationIdSt5ratioILl1ELl1EEEC1IlS1_ILl1ELl1000000000EEvEERKNS0_IT_T0_EE>
    1462:	48 8d 85 50 ff ff ff 	lea    -0xb0(%rbp),%rax
    1469:	48 89 c7             	mov    %rax,%rdi
    146c:	e8 c9 03 00 00       	callq  183a <_ZNKSt6chrono8durationIdSt5ratioILl1ELl1EEE5countEv>
    1471:	48 8b 85 60 ff ff ff 	mov    -0xa0(%rbp),%rax
    1478:	48 89 c6             	mov    %rax,%rsi
    147b:	48 8d 3d ae 0b 00 00 	lea    0xbae(%rip),%rdi        # 2030 <_IO_stdin_used+0x30>
    1482:	b8 01 00 00 00       	mov    $0x1,%eax
    1487:	e8 14 fc ff ff       	callq  10a0 <printf@plt>
    148c:	bf 0a 00 00 00       	mov    $0xa,%edi
    1491:	e8 3a fc ff ff       	callq  10d0 <putchar@plt>
    1496:	48 8d 3d c1 0b 00 00 	lea    0xbc1(%rip),%rdi        # 205e <_IO_stdin_used+0x5e>
    149d:	b8 00 00 00 00       	mov    $0x0,%eax
    14a2:	e8 f9 fb ff ff       	callq  10a0 <printf@plt>
    14a7:	c7 85 2c ff ff ff 00 	movl   $0x0,-0xd4(%rbp)
    14ae:	00 00 00 
    14b1:	83 bd 2c ff ff ff 0f 	cmpl   $0xf,-0xd4(%rbp)
    14b8:	7f 2f                	jg     14e9 <main+0x275>
    14ba:	8b 85 2c ff ff ff    	mov    -0xd4(%rbp),%eax
    14c0:	48 98                	cltq   
    14c2:	0f b6 84 05 70 ff ff 	movzbl -0x90(%rbp,%rax,1),%eax
    14c9:	ff 
    14ca:	0f be c0             	movsbl %al,%eax
    14cd:	89 c6                	mov    %eax,%esi
    14cf:	48 8d 3d 4f 0b 00 00 	lea    0xb4f(%rip),%rdi        # 2025 <_IO_stdin_used+0x25>
    14d6:	b8 00 00 00 00       	mov    $0x0,%eax
    14db:	e8 c0 fb ff ff       	callq  10a0 <printf@plt>
    14e0:	83 85 2c ff ff ff 01 	addl   $0x1,-0xd4(%rbp)
    14e7:	eb c8                	jmp    14b1 <main+0x23d>
    14e9:	bf 0a 00 00 00       	mov    $0xa,%edi
    14ee:	e8 dd fb ff ff       	callq  10d0 <putchar@plt>
    14f3:	e9 78 01 00 00       	jmpq   1670 <main+0x3fc>
    14f8:	c7 85 30 ff ff ff 00 	movl   $0x0,-0xd0(%rbp)
    14ff:	00 00 00 
    1502:	81 bd 30 ff ff ff 7f 	cmpl   $0x55d4a7f,-0xd0(%rbp)
    1509:	4a 5d 05 
    150c:	7f 2a                	jg     1538 <main+0x2c4>
    150e:	8b 85 30 ff ff ff    	mov    -0xd0(%rbp),%eax
    1514:	83 e0 3f             	and    $0x3f,%eax
    1517:	89 c2                	mov    %eax,%edx
    1519:	48 8d 4d b0          	lea    -0x50(%rbp),%rcx
    151d:	48 8d 85 70 ff ff ff 	lea    -0x90(%rbp),%rax
    1524:	48 89 ce             	mov    %rcx,%rsi
    1527:	48 89 c7             	mov    %rax,%rdi
    152a:	e8 fd fc ff ff       	callq  122c <_Z11swap_lanes2PcS_i>
    152f:	83 85 30 ff ff ff 01 	addl   $0x1,-0xd0(%rbp)
    1536:	eb ca                	jmp    1502 <main+0x28e>
    1538:	48 c7 85 68 ff ff ff 	movq   $0x0,-0x98(%rbp)
    153f:	00 00 00 00 
    1543:	e8 78 fb ff ff       	callq  10c0 <_ZNSt6chrono3_V212steady_clock3nowEv@plt>
    1548:	48 89 85 40 ff ff ff 	mov    %rax,-0xc0(%rbp)
    154f:	c7 85 34 ff ff ff 00 	movl   $0x0,-0xcc(%rbp)
    1556:	00 00 00 
    1559:	81 bd 34 ff ff ff 7f 	cmpl   $0x55d4a7f,-0xcc(%rbp)
    1560:	4a 5d 05 
    1563:	7f 35                	jg     159a <main+0x326>
    1565:	8b 85 34 ff ff ff    	mov    -0xcc(%rbp),%eax
    156b:	83 e0 3f             	and    $0x3f,%eax
    156e:	89 c2                	mov    %eax,%edx
    1570:	48 8d 4d b0          	lea    -0x50(%rbp),%rcx
    1574:	48 8d 85 70 ff ff ff 	lea    -0x90(%rbp),%rax
    157b:	48 89 ce             	mov    %rcx,%rsi
    157e:	48 89 c7             	mov    %rax,%rdi
    1581:	e8 a6 fc ff ff       	callq  122c <_Z11swap_lanes2PcS_i>
    1586:	48 0f be c0          	movsbq %al,%rax
    158a:	48 01 85 68 ff ff ff 	add    %rax,-0x98(%rbp)
    1591:	83 85 34 ff ff ff 01 	addl   $0x1,-0xcc(%rbp)
    1598:	eb bf                	jmp    1559 <main+0x2e5>
    159a:	e8 21 fb ff ff       	callq  10c0 <_ZNSt6chrono3_V212steady_clock3nowEv@plt>
    159f:	48 89 85 48 ff ff ff 	mov    %rax,-0xb8(%rbp)
    15a6:	48 8d 95 40 ff ff ff 	lea    -0xc0(%rbp),%rdx
    15ad:	48 8d 85 48 ff ff ff 	lea    -0xb8(%rbp),%rax
    15b4:	48 89 d6             	mov    %rdx,%rsi
    15b7:	48 89 c7             	mov    %rax,%rdi
    15ba:	e8 68 01 00 00       	callq  1727 <_ZNSt6chronomiINS_3_V212steady_clockENS_8durationIlSt5ratioILl1ELl1000000000EEEES6_EENSt11common_typeIJT0_T1_EE4typeERKNS_10time_pointIT_S8_EERKNSC_ISD_S9_EE>
    15bf:	48 89 85 58 ff ff ff 	mov    %rax,-0xa8(%rbp)
    15c6:	48 8d 95 58 ff ff ff 	lea    -0xa8(%rbp),%rdx
    15cd:	48 8d 85 50 ff ff ff 	lea    -0xb0(%rbp),%rax
    15d4:	48 89 d6             	mov    %rdx,%rsi
    15d7:	48 89 c7             	mov    %rax,%rdi
    15da:	e8 e5 00 00 00       	callq  16c4 <_ZNSt6chrono8durationIdSt5ratioILl1ELl1EEEC1IlS1_ILl1ELl1000000000EEvEERKNS0_IT_T0_EE>
    15df:	48 8d 85 50 ff ff ff 	lea    -0xb0(%rbp),%rax
    15e6:	48 89 c7             	mov    %rax,%rdi
    15e9:	e8 4c 02 00 00       	callq  183a <_ZNKSt6chrono8durationIdSt5ratioILl1ELl1EEE5countEv>
    15ee:	48 8b 85 68 ff ff ff 	mov    -0x98(%rbp),%rax
    15f5:	48 89 c6             	mov    %rax,%rsi
    15f8:	48 8d 3d 69 0a 00 00 	lea    0xa69(%rip),%rdi        # 2068 <_IO_stdin_used+0x68>
    15ff:	b8 01 00 00 00       	mov    $0x1,%eax
    1604:	e8 97 fa ff ff       	callq  10a0 <printf@plt>
    1609:	bf 0a 00 00 00       	mov    $0xa,%edi
    160e:	e8 bd fa ff ff       	callq  10d0 <putchar@plt>
    1613:	48 8d 3d 44 0a 00 00 	lea    0xa44(%rip),%rdi        # 205e <_IO_stdin_used+0x5e>
    161a:	b8 00 00 00 00       	mov    $0x0,%eax
    161f:	e8 7c fa ff ff       	callq  10a0 <printf@plt>
    1624:	c7 85 38 ff ff ff 00 	movl   $0x0,-0xc8(%rbp)
    162b:	00 00 00 
    162e:	83 bd 38 ff ff ff 0f 	cmpl   $0xf,-0xc8(%rbp)
    1635:	7f 2f                	jg     1666 <main+0x3f2>
    1637:	8b 85 38 ff ff ff    	mov    -0xc8(%rbp),%eax
    163d:	48 98                	cltq   
    163f:	0f b6 84 05 70 ff ff 	movzbl -0x90(%rbp,%rax,1),%eax
    1646:	ff 
    1647:	0f be c0             	movsbl %al,%eax
    164a:	89 c6                	mov    %eax,%esi
    164c:	48 8d 3d d2 09 00 00 	lea    0x9d2(%rip),%rdi        # 2025 <_IO_stdin_used+0x25>
    1653:	b8 00 00 00 00       	mov    $0x0,%eax
    1658:	e8 43 fa ff ff       	callq  10a0 <printf@plt>
    165d:	83 85 38 ff ff ff 01 	addl   $0x1,-0xc8(%rbp)
    1664:	eb c8                	jmp    162e <main+0x3ba>
    1666:	bf 0a 00 00 00       	mov    $0xa,%edi
    166b:	e8 60 fa ff ff       	callq  10d0 <putchar@plt>
    1670:	b8 00 00 00 00       	mov    $0x0,%eax
    1675:	48 8b 4d f8          	mov    -0x8(%rbp),%rcx
    1679:	64 48 33 0c 25 28 00 	xor    %fs:0x28,%rcx
    1680:	00 00 
    1682:	74 05                	je     1689 <main+0x415>
    1684:	e8 27 fa ff ff       	callq  10b0 <__stack_chk_fail@plt>
    1689:	c9                   	leaveq 
    168a:	c3                   	retq   
    168b:	90                   	nop

000000000000168c <_ZNKSt6chrono8durationIlSt5ratioILl1ELl1000000000EEE5countEv>:
    168c:	f3 0f 1e fa          	endbr64 
    1690:	55                   	push   %rbp
    1691:	48 89 e5             	mov    %rsp,%rbp
    1694:	48 89 7d f8          	mov    %rdi,-0x8(%rbp)
    1698:	48 8b 45 f8          	mov    -0x8(%rbp),%rax
    169c:	48 8b 00             	mov    (%rax),%rax
    169f:	5d                   	pop    %rbp
    16a0:	c3                   	retq   
    16a1:	90                   	nop

00000000000016a2 <_ZNSt6chrono8durationIlSt5ratioILl1ELl1000000000EEEC1IlvEERKT_>:
    16a2:	f3 0f 1e fa          	endbr64 
    16a6:	55                   	push   %rbp
    16a7:	48 89 e5             	mov    %rsp,%rbp
    16aa:	48 89 7d f8          	mov    %rdi,-0x8(%rbp)
    16ae:	48 89 75 f0          	mov    %rsi,-0x10(%rbp)
    16b2:	48 8b 45 f0          	mov    -0x10(%rbp),%rax
    16b6:	48 8b 10             	mov    (%rax),%rdx
    16b9:	48 8b 45 f8          	mov    -0x8(%rbp),%rax
    16bd:	48 89 10             	mov    %rdx,(%rax)
    16c0:	90                   	nop
    16c1:	5d                   	pop    %rbp
    16c2:	c3                   	retq   
    16c3:	90                   	nop

00000000000016c4 <_ZNSt6chrono8durationIdSt5ratioILl1ELl1EEEC1IlS1_ILl1ELl1000000000EEvEERKNS0_IT_T0_EE>:
    16c4:	f3 0f 1e fa          	endbr64 
    16c8:	55                   	push   %rbp
    16c9:	48 89 e5             	mov    %rsp,%rbp
    16cc:	48 83 ec 20          	sub    $0x20,%rsp
    16d0:	48 89 7d e8          	mov    %rdi,-0x18(%rbp)
    16d4:	48 89 75 e0          	mov    %rsi,-0x20(%rbp)
    16d8:	64 48 8b 04 25 28 00 	mov    %fs:0x28,%rax
    16df:	00 00 
    16e1:	48 89 45 f8          	mov    %rax,-0x8(%rbp)
    16e5:	31 c0                	xor    %eax,%eax
    16e7:	48 8b 45 e0          	mov    -0x20(%rbp),%rax
    16eb:	48 89 c7             	mov    %rax,%rdi
    16ee:	e8 5d 01 00 00       	callq  1850 <_ZNSt6chrono13duration_castINS_8durationIdSt5ratioILl1ELl1EEEElS2_ILl1ELl1000000000EEEENSt9enable_ifIXsrNS_13__is_durationIT_EE5valueES8_E4typeERKNS1_IT0_T1_EE>
    16f3:	f2 0f 11 45 f0       	movsd  %xmm0,-0x10(%rbp)
    16f8:	48 8d 45 f0          	lea    -0x10(%rbp),%rax
    16fc:	48 89 c7             	mov    %rax,%rdi
    16ff:	e8 36 01 00 00       	callq  183a <_ZNKSt6chrono8durationIdSt5ratioILl1ELl1EEE5countEv>
    1704:	66 48 0f 7e c0       	movq   %xmm0,%rax
    1709:	48 8b 55 e8          	mov    -0x18(%rbp),%rdx
    170d:	48 89 02             	mov    %rax,(%rdx)
    1710:	90                   	nop
    1711:	48 8b 45 f8          	mov    -0x8(%rbp),%rax
    1715:	64 48 33 04 25 28 00 	xor    %fs:0x28,%rax
    171c:	00 00 
    171e:	74 05                	je     1725 <_ZNSt6chrono8durationIdSt5ratioILl1ELl1EEEC1IlS1_ILl1ELl1000000000EEvEERKNS0_IT_T0_EE+0x61>
    1720:	e8 8b f9 ff ff       	callq  10b0 <__stack_chk_fail@plt>
    1725:	c9                   	leaveq 
    1726:	c3                   	retq   

0000000000001727 <_ZNSt6chronomiINS_3_V212steady_clockENS_8durationIlSt5ratioILl1ELl1000000000EEEES6_EENSt11common_typeIJT0_T1_EE4typeERKNS_10time_pointIT_S8_EERKNSC_ISD_S9_EE>:
    1727:	f3 0f 1e fa          	endbr64 
    172b:	55                   	push   %rbp
    172c:	48 89 e5             	mov    %rsp,%rbp
    172f:	48 83 ec 30          	sub    $0x30,%rsp
    1733:	48 89 7d d8          	mov    %rdi,-0x28(%rbp)
    1737:	48 89 75 d0          	mov    %rsi,-0x30(%rbp)
    173b:	64 48 8b 04 25 28 00 	mov    %fs:0x28,%rax
    1742:	00 00 
    1744:	48 89 45 f8          	mov    %rax,-0x8(%rbp)
    1748:	31 c0                	xor    %eax,%eax
    174a:	48 8b 45 d0          	mov    -0x30(%rbp),%rax
    174e:	48 89 c7             	mov    %rax,%rdi
    1751:	e8 ce 00 00 00       	callq  1824 <_ZNKSt6chrono10time_pointINS_3_V212steady_clockENS_8durationIlSt5ratioILl1ELl1000000000EEEEE16time_since_epochEv>
    1756:	48 89 45 f0          	mov    %rax,-0x10(%rbp)
    175a:	48 8b 45 d8          	mov    -0x28(%rbp),%rax
    175e:	48 89 c7             	mov    %rax,%rdi
    1761:	e8 be 00 00 00       	callq  1824 <_ZNKSt6chrono10time_pointINS_3_V212steady_clockENS_8durationIlSt5ratioILl1ELl1000000000EEEEE16time_since_epochEv>
    1766:	48 89 45 e8          	mov    %rax,-0x18(%rbp)
    176a:	48 8d 55 f0          	lea    -0x10(%rbp),%rdx
    176e:	48 8d 45 e8          	lea    -0x18(%rbp),%rax
    1772:	48 89 d6             	mov    %rdx,%rsi
    1775:	48 89 c7             	mov    %rax,%rdi
    1778:	e8 16 00 00 00       	callq  1793 <_ZNSt6chronomiIlSt5ratioILl1ELl1000000000EElS2_EENSt11common_typeIJNS_8durationIT_T0_EENS4_IT1_T2_EEEE4typeERKS7_RKSA_>
    177d:	48 8b 4d f8          	mov    -0x8(%rbp),%rcx
    1781:	64 48 33 0c 25 28 00 	xor    %fs:0x28,%rcx
    1788:	00 00 
    178a:	74 05                	je     1791 <_ZNSt6chronomiINS_3_V212steady_clockENS_8durationIlSt5ratioILl1ELl1000000000EEEES6_EENSt11common_typeIJT0_T1_EE4typeERKNS_10time_pointIT_S8_EERKNSC_ISD_S9_EE+0x6a>
    178c:	e8 1f f9 ff ff       	callq  10b0 <__stack_chk_fail@plt>
    1791:	c9                   	leaveq 
    1792:	c3                   	retq   

0000000000001793 <_ZNSt6chronomiIlSt5ratioILl1ELl1000000000EElS2_EENSt11common_typeIJNS_8durationIT_T0_EENS4_IT1_T2_EEEE4typeERKS7_RKSA_>:
    1793:	f3 0f 1e fa          	endbr64 
    1797:	55                   	push   %rbp
    1798:	48 89 e5             	mov    %rsp,%rbp
    179b:	53                   	push   %rbx
    179c:	48 83 ec 48          	sub    $0x48,%rsp
    17a0:	48 89 7d b8          	mov    %rdi,-0x48(%rbp)
    17a4:	48 89 75 b0          	mov    %rsi,-0x50(%rbp)
    17a8:	64 48 8b 04 25 28 00 	mov    %fs:0x28,%rax
    17af:	00 00 
    17b1:	48 89 45 e8          	mov    %rax,-0x18(%rbp)
    17b5:	31 c0                	xor    %eax,%eax
    17b7:	48 8b 45 b8          	mov    -0x48(%rbp),%rax
    17bb:	48 8b 00             	mov    (%rax),%rax
    17be:	48 89 45 c8          	mov    %rax,-0x38(%rbp)
    17c2:	48 8d 45 c8          	lea    -0x38(%rbp),%rax
    17c6:	48 89 c7             	mov    %rax,%rdi
    17c9:	e8 be fe ff ff       	callq  168c <_ZNKSt6chrono8durationIlSt5ratioILl1ELl1000000000EEE5countEv>
    17ce:	48 89 c3             	mov    %rax,%rbx
    17d1:	48 8b 45 b0          	mov    -0x50(%rbp),%rax
    17d5:	48 8b 00             	mov    (%rax),%rax
    17d8:	48 89 45 d0          	mov    %rax,-0x30(%rbp)
    17dc:	48 8d 45 d0          	lea    -0x30(%rbp),%rax
    17e0:	48 89 c7             	mov    %rax,%rdi
    17e3:	e8 a4 fe ff ff       	callq  168c <_ZNKSt6chrono8durationIlSt5ratioILl1ELl1000000000EEE5countEv>
    17e8:	48 29 c3             	sub    %rax,%rbx
    17eb:	48 89 d8             	mov    %rbx,%rax
    17ee:	48 89 45 d8          	mov    %rax,-0x28(%rbp)
    17f2:	48 8d 55 d8          	lea    -0x28(%rbp),%rdx
    17f6:	48 8d 45 e0          	lea    -0x20(%rbp),%rax
    17fa:	48 89 d6             	mov    %rdx,%rsi
    17fd:	48 89 c7             	mov    %rax,%rdi
    1800:	e8 9d fe ff ff       	callq  16a2 <_ZNSt6chrono8durationIlSt5ratioILl1ELl1000000000EEEC1IlvEERKT_>
    1805:	48 8b 45 e0          	mov    -0x20(%rbp),%rax
    1809:	48 8b 4d e8          	mov    -0x18(%rbp),%rcx
    180d:	64 48 33 0c 25 28 00 	xor    %fs:0x28,%rcx
    1814:	00 00 
    1816:	74 05                	je     181d <_ZNSt6chronomiIlSt5ratioILl1ELl1000000000EElS2_EENSt11common_typeIJNS_8durationIT_T0_EENS4_IT1_T2_EEEE4typeERKS7_RKSA_+0x8a>
    1818:	e8 93 f8 ff ff       	callq  10b0 <__stack_chk_fail@plt>
    181d:	48 83 c4 48          	add    $0x48,%rsp
    1821:	5b                   	pop    %rbx
    1822:	5d                   	pop    %rbp
    1823:	c3                   	retq   

0000000000001824 <_ZNKSt6chrono10time_pointINS_3_V212steady_clockENS_8durationIlSt5ratioILl1ELl1000000000EEEEE16time_since_epochEv>:
    1824:	f3 0f 1e fa          	endbr64 
    1828:	55                   	push   %rbp
    1829:	48 89 e5             	mov    %rsp,%rbp
    182c:	48 89 7d f8          	mov    %rdi,-0x8(%rbp)
    1830:	48 8b 45 f8          	mov    -0x8(%rbp),%rax
    1834:	48 8b 00             	mov    (%rax),%rax
    1837:	5d                   	pop    %rbp
    1838:	c3                   	retq   
    1839:	90                   	nop

000000000000183a <_ZNKSt6chrono8durationIdSt5ratioILl1ELl1EEE5countEv>:
    183a:	f3 0f 1e fa          	endbr64 
    183e:	55                   	push   %rbp
    183f:	48 89 e5             	mov    %rsp,%rbp
    1842:	48 89 7d f8          	mov    %rdi,-0x8(%rbp)
    1846:	48 8b 45 f8          	mov    -0x8(%rbp),%rax
    184a:	f2 0f 10 00          	movsd  (%rax),%xmm0
    184e:	5d                   	pop    %rbp
    184f:	c3                   	retq   

0000000000001850 <_ZNSt6chrono13duration_castINS_8durationIdSt5ratioILl1ELl1EEEElS2_ILl1ELl1000000000EEEENSt9enable_ifIXsrNS_13__is_durationIT_EE5valueES8_E4typeERKNS1_IT0_T1_EE>:
    1850:	f3 0f 1e fa          	endbr64 
    1854:	55                   	push   %rbp
    1855:	48 89 e5             	mov    %rsp,%rbp
    1858:	48 83 ec 10          	sub    $0x10,%rsp
    185c:	48 89 7d f8          	mov    %rdi,-0x8(%rbp)
    1860:	48 8b 45 f8          	mov    -0x8(%rbp),%rax
    1864:	48 89 c7             	mov    %rax,%rdi
    1867:	e8 02 00 00 00       	callq  186e <_ZNSt6chrono20__duration_cast_implINS_8durationIdSt5ratioILl1ELl1EEEES2_ILl1ELl1000000000EEdLb1ELb0EE6__castIlS5_EES4_RKNS1_IT_T0_EE>
    186c:	c9                   	leaveq 
    186d:	c3                   	retq   

000000000000186e <_ZNSt6chrono20__duration_cast_implINS_8durationIdSt5ratioILl1ELl1EEEES2_ILl1ELl1000000000EEdLb1ELb0EE6__castIlS5_EES4_RKNS1_IT_T0_EE>:
    186e:	f3 0f 1e fa          	endbr64 
    1872:	55                   	push   %rbp
    1873:	48 89 e5             	mov    %rsp,%rbp
    1876:	48 83 ec 30          	sub    $0x30,%rsp
    187a:	48 89 7d d8          	mov    %rdi,-0x28(%rbp)
    187e:	64 48 8b 04 25 28 00 	mov    %fs:0x28,%rax
    1885:	00 00 
    1887:	48 89 45 f8          	mov    %rax,-0x8(%rbp)
    188b:	31 c0                	xor    %eax,%eax
    188d:	48 8b 45 d8          	mov    -0x28(%rbp),%rax
    1891:	48 89 c7             	mov    %rax,%rdi
    1894:	e8 f3 fd ff ff       	callq  168c <_ZNKSt6chrono8durationIlSt5ratioILl1ELl1000000000EEE5countEv>
    1899:	f2 48 0f 2a c0       	cvtsi2sd %rax,%xmm0
    189e:	f2 0f 10 0d f2 07 00 	movsd  0x7f2(%rip),%xmm1        # 2098 <_IO_stdin_used+0x98>
    18a5:	00 
    18a6:	f2 0f 5e c1          	divsd  %xmm1,%xmm0
    18aa:	f2 0f 11 45 e8       	movsd  %xmm0,-0x18(%rbp)
    18af:	48 8d 55 e8          	lea    -0x18(%rbp),%rdx
    18b3:	48 8d 45 f0          	lea    -0x10(%rbp),%rax
    18b7:	48 89 d6             	mov    %rdx,%rsi
    18ba:	48 89 c7             	mov    %rax,%rdi
    18bd:	e8 1c 00 00 00       	callq  18de <_ZNSt6chrono8durationIdSt5ratioILl1ELl1EEEC1IdvEERKT_>
    18c2:	f2 0f 10 45 f0       	movsd  -0x10(%rbp),%xmm0
    18c7:	48 8b 45 f8          	mov    -0x8(%rbp),%rax
    18cb:	64 48 33 04 25 28 00 	xor    %fs:0x28,%rax
    18d2:	00 00 
    18d4:	74 05                	je     18db <_ZNSt6chrono20__duration_cast_implINS_8durationIdSt5ratioILl1ELl1EEEES2_ILl1ELl1000000000EEdLb1ELb0EE6__castIlS5_EES4_RKNS1_IT_T0_EE+0x6d>
    18d6:	e8 d5 f7 ff ff       	callq  10b0 <__stack_chk_fail@plt>
    18db:	c9                   	leaveq 
    18dc:	c3                   	retq   
    18dd:	90                   	nop

00000000000018de <_ZNSt6chrono8durationIdSt5ratioILl1ELl1EEEC1IdvEERKT_>:
    18de:	f3 0f 1e fa          	endbr64 
    18e2:	55                   	push   %rbp
    18e3:	48 89 e5             	mov    %rsp,%rbp
    18e6:	48 89 7d f8          	mov    %rdi,-0x8(%rbp)
    18ea:	48 89 75 f0          	mov    %rsi,-0x10(%rbp)
    18ee:	48 8b 45 f0          	mov    -0x10(%rbp),%rax
    18f2:	f2 0f 10 00          	movsd  (%rax),%xmm0
    18f6:	48 8b 45 f8          	mov    -0x8(%rbp),%rax
    18fa:	f2 0f 11 00          	movsd  %xmm0,(%rax)
    18fe:	90                   	nop
    18ff:	5d                   	pop    %rbp
    1900:	c3                   	retq   
    1901:	66 2e 0f 1f 84 00 00 	nopw   %cs:0x0(%rax,%rax,1)
    1908:	00 00 00 
    190b:	0f 1f 44 00 00       	nopl   0x0(%rax,%rax,1)

0000000000001910 <__libc_csu_init>:
    1910:	f3 0f 1e fa          	endbr64 
    1914:	41 57                	push   %r15
    1916:	4c 8d 3d 63 24 00 00 	lea    0x2463(%rip),%r15        # 3d80 <__frame_dummy_init_array_entry>
    191d:	41 56                	push   %r14
    191f:	49 89 d6             	mov    %rdx,%r14
    1922:	41 55                	push   %r13
    1924:	49 89 f5             	mov    %rsi,%r13
    1927:	41 54                	push   %r12
    1929:	41 89 fc             	mov    %edi,%r12d
    192c:	55                   	push   %rbp
    192d:	48 8d 2d 54 24 00 00 	lea    0x2454(%rip),%rbp        # 3d88 <__do_global_dtors_aux_fini_array_entry>
    1934:	53                   	push   %rbx
    1935:	4c 29 fd             	sub    %r15,%rbp
    1938:	48 83 ec 08          	sub    $0x8,%rsp
    193c:	e8 bf f6 ff ff       	callq  1000 <_init>
    1941:	48 c1 fd 03          	sar    $0x3,%rbp
    1945:	74 1f                	je     1966 <__libc_csu_init+0x56>
    1947:	31 db                	xor    %ebx,%ebx
    1949:	0f 1f 80 00 00 00 00 	nopl   0x0(%rax)
    1950:	4c 89 f2             	mov    %r14,%rdx
    1953:	4c 89 ee             	mov    %r13,%rsi
    1956:	44 89 e7             	mov    %r12d,%edi
    1959:	41 ff 14 df          	callq  *(%r15,%rbx,8)
    195d:	48 83 c3 01          	add    $0x1,%rbx
    1961:	48 39 dd             	cmp    %rbx,%rbp
    1964:	75 ea                	jne    1950 <__libc_csu_init+0x40>
    1966:	48 83 c4 08          	add    $0x8,%rsp
    196a:	5b                   	pop    %rbx
    196b:	5d                   	pop    %rbp
    196c:	41 5c                	pop    %r12
    196e:	41 5d                	pop    %r13
    1970:	41 5e                	pop    %r14
    1972:	41 5f                	pop    %r15
    1974:	c3                   	retq   
    1975:	66 66 2e 0f 1f 84 00 	data16 nopw %cs:0x0(%rax,%rax,1)
    197c:	00 00 00 00 

0000000000001980 <__libc_csu_fini>:
    1980:	f3 0f 1e fa          	endbr64 
    1984:	c3                   	retq   

Disassembly of section .fini:

0000000000001988 <_fini>:
    1988:	f3 0f 1e fa          	endbr64 
    198c:	48 83 ec 08          	sub    $0x8,%rsp
    1990:	48 83 c4 08          	add    $0x8,%rsp
    1994:	c3                   	retq   
