	.section .text
.LNDBG_TX:
# mark_description "Intel(R) C++ Intel(R) 64 Compiler for applications running on Intel(R) 64, Version 19.1.0.166 Build 20191121";
# mark_description "";
# mark_description "-I /home/jatinbha/softwares/iaca-lin64/ -x c++ -mavx512f -o copy512_scalar_lt64.s -S -g";
	.file "copy512_scalar_lt64.c"
	.text
..TXTST0:
.L_2__routine_start__Z8init_memPcc_0:
# -- Begin  _Z8init_memPcc
	.text
# mark_begin;

	.globl _Z8init_memPcc
# --- init_mem(char *, char)
_Z8init_memPcc:
# parameter 1(mem): %rdi
# parameter 2(val): %esi
..B1.1:                         # Preds ..B1.0
                                # Execution count [0.00e+00]
	.cfi_startproc
	.cfi_personality 0x3,__gxx_personality_v0
..___tag_value__Z8init_memPcc.2:
..L3:
                                                          #19.37
..LN0:
	.file   1 "copy512_scalar_lt64.c"
	.loc    1  19  is_stmt 1
        pushq     %rbp                                          #19.37
	.cfi_def_cfa_offset 16
..LN1:
        movq      %rsp, %rbp                                    #19.37
	.cfi_def_cfa 6, 16
	.cfi_offset 6, -16
..LN2:
        subq      $32, %rsp                                     #19.37
..LN3:
        movq      %rdi, -24(%rbp)                               #19.37
..LN4:
        movb      %sil, -16(%rbp)                               #19.37
..LN5:
	.loc    1  20  prologue_end  is_stmt 1
        movl      $0, -32(%rbp)                                 #20.13
..LN6:
                                # LOE rbx rbp rsp r12 r13 r14 r15 rip
..B1.2:                         # Preds ..B1.3 ..B1.1
                                # Execution count [0.00e+00]
..LN7:
        movl      -32(%rbp), %eax                               #20.19
..LN8:
        cmpl      $32768, %eax                                  #20.23
..LN9:
        jae       ..B1.4        # Prob 50%                      #20.23
..LN10:
                                # LOE rbx rbp rsp r12 r13 r14 r15 rip
..B1.3:                         # Preds ..B1.2
                                # Execution count [0.00e+00]
..LN11:
	.loc    1  21  is_stmt 1
        movl      -32(%rbp), %eax                               #21.9
..LN12:
        movslq    %eax, %rax                                    #21.5
..LN13:
        addq      -24(%rbp), %rax                               #21.5
..LN14:
        movsbl    -16(%rbp), %edx                               #21.14
..LN15:
        movb      %dl, (%rax)                                   #21.5
..LN16:
	.loc    1  20  is_stmt 1
        movl      $1, %eax                                      #20.35
..LN17:
        addl      -32(%rbp), %eax                               #20.35
..LN18:
        movl      %eax, -32(%rbp)                               #20.35
..LN19:
        jmp       ..B1.2        # Prob 100%                     #20.35
..LN20:
                                # LOE rbx rbp rsp r12 r13 r14 r15 rip
..B1.4:                         # Preds ..B1.2
                                # Execution count [0.00e+00]
..LN21:
	.loc    1  22  epilogue_begin  is_stmt 1
        leave                                                   #22.1
	.cfi_restore 6
..LN22:
        ret                                                     #22.1
..LN23:
                                # LOE
..LN24:
	.cfi_endproc
# mark_end;
	.type	_Z8init_memPcc,@function
	.size	_Z8init_memPcc,.-_Z8init_memPcc
..LN_Z8init_memPcc.25:
.LN_Z8init_memPcc:
	.data
# -- End  _Z8init_memPcc
	.text
.L_2__routine_start__Z11scalar_copyPcS_i_1:
# -- Begin  _Z11scalar_copyPcS_i
	.text
# mark_begin;

	.globl _Z11scalar_copyPcS_i
# --- scalar_copy(char *, char *, int)
_Z11scalar_copyPcS_i:
# parameter 1(dst): %rdi
# parameter 2(src): %rsi
# parameter 3(len): %edx
..B2.1:                         # Preds ..B2.0
                                # Execution count [0.00e+00]
	.cfi_startproc
	.cfi_personality 0x3,__gxx_personality_v0
..___tag_value__Z11scalar_copyPcS_i.14:
..L15:
                                                         #25.51
..LN26:
	.loc    1  25  is_stmt 1
        pushq     %rbp                                          #25.51
	.cfi_def_cfa_offset 16
..LN27:
        movq      %rsp, %rbp                                    #25.51
	.cfi_def_cfa 6, 16
	.cfi_offset 6, -16
..LN28:
        subq      $32, %rsp                                     #25.51
..LN29:
        movq      %rdi, -24(%rbp)                               #25.51
..LN30:
        movq      %rsi, -16(%rbp)                               #25.51
..LN31:
        movl      %edx, -8(%rbp)                                #25.51
..LN32:
	.loc    1  26  prologue_end  is_stmt 1
        movl      $0, -32(%rbp)                                 #26.13
..LN33:
                                # LOE rbx rbp rsp r12 r13 r14 r15 rip
..B2.2:                         # Preds ..B2.3 ..B2.1
                                # Execution count [0.00e+00]
..LN34:
        movl      -32(%rbp), %eax                               #26.18
..LN35:
        movl      -8(%rbp), %edx                                #26.22
..LN36:
        cmpl      %edx, %eax                                    #26.22
..LN37:
        jge       ..B2.4        # Prob 50%                      #26.22
..LN38:
                                # LOE rbx rbp rsp r12 r13 r14 r15 rip
..B2.3:                         # Preds ..B2.2
                                # Execution count [0.00e+00]
..LN39:
	.loc    1  27  is_stmt 1
        movl      -32(%rbp), %eax                               #27.18
..LN40:
        movslq    %eax, %rax                                    #27.14
..LN41:
        addq      -16(%rbp), %rax                               #27.14
..LN42:
        movl      -32(%rbp), %edx                               #27.9
..LN43:
        movslq    %edx, %rdx                                    #27.5
..LN44:
        addq      -24(%rbp), %rdx                               #27.5
..LN45:
        movsbl    (%rax), %eax                                  #27.14
..LN46:
        movb      %al, (%rdx)                                   #27.5
..LN47:
	.loc    1  26  is_stmt 1
        movl      $1, %eax                                      #26.27
..LN48:
        addl      -32(%rbp), %eax                               #26.27
..LN49:
        movl      %eax, -32(%rbp)                               #26.27
..LN50:
        jmp       ..B2.2        # Prob 100%                     #26.27
..LN51:
                                # LOE rbx rbp rsp r12 r13 r14 r15 rip
..B2.4:                         # Preds ..B2.2
                                # Execution count [0.00e+00]
..LN52:
	.loc    1  28  is_stmt 1
        movq      -24(%rbp), %rax                               #28.10
..LN53:
        movsbl    (%rax), %eax                                  #28.10
..LN54:
        movsbq    %al, %rax                                     #28.10
..LN55:
	.loc    1  28  epilogue_begin  is_stmt 1
        leave                                                   #28.10
	.cfi_restore 6
..LN56:
        ret                                                     #28.10
..LN57:
                                # LOE
..LN58:
	.cfi_endproc
# mark_end;
	.type	_Z11scalar_copyPcS_i,@function
	.size	_Z11scalar_copyPcS_i,.-_Z11scalar_copyPcS_i
..LN_Z11scalar_copyPcS_i.59:
.LN_Z11scalar_copyPcS_i:
	.data
# -- End  _Z11scalar_copyPcS_i
	.text
.L_2__routine_start_main_2:
# -- Begin  main
	.section .rodata, "a"
	.align 4
	.align 4
.L_2__STRING.0:
	.long	1630481952
	.long	1008758896
	.long	1145323856
	.long	541544009
	.long	544370534
	.long	1646277686
	.long	543519865
	.long	1734962273
	.long	543450478
	.long	1869440365
	.long	171866482
	.byte	0
	.type	.L_2__STRING.0,@object
	.size	.L_2__STRING.0,45
	.space 3, 0x00 	# pad
	.align 4
.L_2__STRING.1:
	.long	1702127963
	.long	975205234
	.long	1684808992
	.long	1699881053
	.long	540876915
	.long	680997
	.type	.L_2__STRING.1,@object
	.size	.L_2__STRING.1,24
	.text
# mark_begin;

	.globl main
# --- main(int, char **)
main:
# parameter 1(argc): %edi
# parameter 2(argv): %rsi
..B3.1:                         # Preds ..B3.0
                                # Execution count [0.00e+00]
	.cfi_startproc
	.cfi_personality 0x3,__gxx_personality_v0
..___tag_value_main.26:
..L27:
                                                         #31.35
..LN60:
	.loc    1  31  is_stmt 1
        pushq     %rbp                                          #31.35
	.cfi_def_cfa_offset 16
..LN61:
        movq      %rsp, %rbp                                    #31.35
	.cfi_def_cfa 6, 16
	.cfi_offset 6, -16
..LN62:
        subq      $96, %rsp                                     #31.35
..LN63:
        movl      %edi, -56(%rbp)                               #31.35
..LN64:
        movq      %rsi, -48(%rbp)                               #31.35
..LN65:
	.loc    1  32  prologue_end  is_stmt 1
        movl      $0, -96(%rbp)                                 #32.11
..LN66:
	.loc    1  33  is_stmt 1
        movq      $0, -40(%rbp)                                 #33.17
..LN67:
	.loc    1  34  is_stmt 1
        movl      -56(%rbp), %eax                               #34.7
..LN68:
        cmpl      $2, %eax                                      #34.15
..LN69:
        je        ..B3.4        # Prob 50%                      #34.15
..LN70:
                                # LOE rbx rbp rsp r12 r13 r14 r15 rip
..B3.2:                         # Preds ..B3.1
                                # Execution count [0.00e+00]
..LN71:
	.loc    1  35  is_stmt 1
        movq      stderr(%rip), %rax                            #35.5
..LN72:
        movl      $.L_2__STRING.0, %edx                         #35.5
..LN73:
        movq      %rax, %rdi                                    #35.5
..LN74:
        movq      %rdx, %rsi                                    #35.5
..LN75:
        movl      $0, %eax                                      #35.5
..___tag_value_main.32:
..LN76:
#       fprintf(FILE *, const char *, ...)
        call      fprintf                                       #35.5
..___tag_value_main.33:
..LN77:
                                # LOE rbx rbp rsp r12 r13 r14 r15 rip eax
..B3.16:                        # Preds ..B3.2
                                # Execution count [0.00e+00]
..LN78:
        movl      %eax, -92(%rbp)                               #35.5
..LN79:
                                # LOE rbx rbp rsp r12 r13 r14 r15 rip
..B3.3:                         # Preds ..B3.16
                                # Execution count [0.00e+00]
..LN80:
	.loc    1  36  is_stmt 1
        movl      $-1, %eax                                     #36.12
..LN81:
	.loc    1  36  epilogue_begin  is_stmt 1
        leave                                                   #36.12
	.cfi_restore 6
..LN82:
        ret                                                     #36.12
	.cfi_offset 6, -16
..LN83:
                                # LOE
..B3.4:                         # Preds ..B3.1
                                # Execution count [0.00e+00]
..LN84:
	.loc    1  38  is_stmt 1
        movl      $32768, %eax                                  #38.23
..LN85:
        movl      $64, %edx                                     #38.23
..LN86:
        movq      %rax, %rdi                                    #38.23
..LN87:
        movq      %rdx, %rsi                                    #38.23
..LN88:
#       _mm_malloc(size_t, size_t)
        call      _mm_malloc                                    #38.23
..LN89:
                                # LOE rax rbx rbp rsp r12 r13 r14 r15 rip
..B3.17:                        # Preds ..B3.4
                                # Execution count [0.00e+00]
..LN90:
        movq      %rax, -32(%rbp)                               #38.23
..LN91:
                                # LOE rbx rbp rsp r12 r13 r14 r15 rip
..B3.5:                         # Preds ..B3.17
                                # Execution count [0.00e+00]
..LN92:
        movq      -32(%rbp), %rax                               #38.23
..LN93:
        movq      %rax, -24(%rbp)                               #38.14
..LN94:
	.loc    1  39  is_stmt 1
        movl      $32768, %eax                                  #39.23
..LN95:
        movl      $64, %edx                                     #39.23
..LN96:
        movq      %rax, %rdi                                    #39.23
..LN97:
        movq      %rdx, %rsi                                    #39.23
..LN98:
#       _mm_malloc(size_t, size_t)
        call      _mm_malloc                                    #39.23
..LN99:
                                # LOE rax rbx rbp rsp r12 r13 r14 r15 rip
..B3.18:                        # Preds ..B3.5
                                # Execution count [0.00e+00]
..LN100:
        movq      %rax, -16(%rbp)                               #39.23
..LN101:
                                # LOE rbx rbp rsp r12 r13 r14 r15 rip
..B3.6:                         # Preds ..B3.18
                                # Execution count [0.00e+00]
..LN102:
        movq      -16(%rbp), %rax                               #39.23
..LN103:
        movq      %rax, -8(%rbp)                                #39.14
..LN104:
	.loc    1  41  is_stmt 1
        movq      -24(%rbp), %rax                               #41.3
..LN105:
        movl      $1, %edx                                      #41.3
..LN106:
        movq      %rax, %rdi                                    #41.3
..LN107:
        movl      %edx, %esi                                    #41.3
..___tag_value_main.37:
..LN108:
#       init_mem(char *, char)
        call      _Z8init_memPcc                                #41.3
..___tag_value_main.38:
..LN109:
                                # LOE rbx rbp rsp r12 r13 r14 r15 rip
..B3.7:                         # Preds ..B3.6
                                # Execution count [0.00e+00]
..LN110:
	.loc    1  42  is_stmt 1
        movq      -8(%rbp), %rax                                #42.3
..LN111:
        movl      $0, %edx                                      #42.3
..LN112:
        movq      %rax, %rdi                                    #42.3
..LN113:
        movl      %edx, %esi                                    #42.3
..___tag_value_main.39:
..LN114:
#       init_mem(char *, char)
        call      _Z8init_memPcc                                #42.3
..___tag_value_main.40:
..LN115:
                                # LOE rbx rbp rsp r12 r13 r14 r15 rip
..B3.8:                         # Preds ..B3.7
                                # Execution count [0.00e+00]
..LN116:
	.loc    1  44  is_stmt 1
        movl      $8, %eax                                      #44.24
..LN117:
        addq      -48(%rbp), %rax                               #44.24
..LN118:
        movq      (%rax), %rax                                  #44.24
..LN119:
        movq      %rax, %rdi                                    #44.24
..___tag_value_main.41:
..LN120:
#       atoi(const char *)
        call      atoi                                          #44.24
..___tag_value_main.42:
..LN121:
                                # LOE rbx rbp rsp r12 r13 r14 r15 rip eax
..B3.20:                        # Preds ..B3.8
                                # Execution count [0.00e+00]
..LN122:
        movl      %eax, -88(%rbp)                               #44.24
..LN123:
        movl      -88(%rbp), %eax                               #44.24
..LN124:
        movslq    %eax, %rax                                    #44.17
..LN125:
        addq      -8(%rbp), %rax                                #44.17
..LN126:
        movq      %rax, -8(%rbp)                                #44.3
..LN127:
	.loc    1  45  is_stmt 1
        movl      $8, %eax                                      #45.23
..LN128:
        addq      -48(%rbp), %rax                               #45.23
..LN129:
        movq      (%rax), %rax                                  #45.23
..LN130:
        movq      %rax, %rdi                                    #45.23
..___tag_value_main.43:
..LN131:
#       atoi(const char *)
        call      atoi                                          #45.23
..___tag_value_main.44:
..LN132:
                                # LOE rbx rbp rsp r12 r13 r14 r15 rip eax
..B3.19:                        # Preds ..B3.20
                                # Execution count [0.00e+00]
..LN133:
        movl      %eax, -84(%rbp)                               #45.23
..LN134:
        movl      -84(%rbp), %eax                               #45.23
..LN135:
        negl      %eax                                          #45.23
..LN136:
        addl      $64, %eax                                     #45.23
..LN137:
        movl      %eax, -80(%rbp)                               #45.16
..LN138:
	.loc    1  46  is_stmt 1
        movl      $0, -76(%rbp)                                 #46.17
..LN139:
                                # LOE rbx rbp rsp r12 r13 r14 r15 rip
..B3.9:                         # Preds ..B3.11 ..B3.19
                                # Execution count [0.00e+00]
..LN140:
        movl      -76(%rbp), %eax                               #46.23
..LN141:
        cmpl      $33554432, %eax                               #46.30
..LN142:
        jge       ..B3.12       # Prob 50%                      #46.30
..LN143:
                                # LOE rbx rbp rsp r12 r13 r14 r15 rip
..B3.10:                        # Preds ..B3.9
                                # Execution count [0.00e+00]
..LN144:
	.loc    1  47  is_stmt 1
        movl      -76(%rbp), %eax                               #47.20
..LN145:
        imull     $64, %eax, %eax                               #47.20
..LN146:
        andl      $16383, %eax                                  #47.27
..LN147:
        movl      %eax, -72(%rbp)                               #47.14
..LN148:
	.loc    1  48  is_stmt 1
        movl      -72(%rbp), %eax                               #48.12
..LN149:
        movslq    %eax, %rax                                    #48.12
..LN150:
        addq      -8(%rbp), %rax                                #48.12
..LN151:
        movl      -72(%rbp), %edx                               #48.12
..LN152:
        movslq    %edx, %rdx                                    #48.12
..LN153:
        addq      -24(%rbp), %rdx                               #48.12
..LN154:
        movl      -80(%rbp), %ecx                               #48.12
..LN155:
        movq      %rax, %rdi                                    #48.12
..LN156:
        movq      %rdx, %rsi                                    #48.12
..LN157:
        movl      %ecx, %edx                                    #48.12
..___tag_value_main.45:
..LN158:
#       scalar_copy(char *, char *, int)
        call      _Z11scalar_copyPcS_i                          #48.12
..___tag_value_main.46:
..LN159:
                                # LOE rbx rbp rsp r12 r13 r14 r15 rip eax
..B3.21:                        # Preds ..B3.10
                                # Execution count [0.00e+00]
..LN160:
        movl      %eax, -68(%rbp)                               #48.12
..LN161:
                                # LOE rbx rbp rsp r12 r13 r14 r15 rip
..B3.11:                        # Preds ..B3.21
                                # Execution count [0.00e+00]
..LN162:
        movl      -68(%rbp), %eax                               #48.12
..LN163:
        addl      -96(%rbp), %eax                               #48.5
..LN164:
        movl      %eax, -96(%rbp)                               #48.5
..LN165:
	.loc    1  49  is_stmt 1
        movl      $1, %eax                                      #49.5
..LN166:
        addq      -40(%rbp), %rax                               #49.5
..LN167:
        movq      %rax, -40(%rbp)                               #49.5
..LN168:
	.loc    1  46  is_stmt 1
        movl      $1, %eax                                      #46.39
..LN169:
        addl      -76(%rbp), %eax                               #46.39
..LN170:
        movl      %eax, -76(%rbp)                               #46.39
..LN171:
        jmp       ..B3.9        # Prob 100%                     #46.39
..LN172:
                                # LOE rbx rbp rsp r12 r13 r14 r15 rip
..B3.12:                        # Preds ..B3.9
                                # Execution count [0.00e+00]
..LN173:
	.loc    1  52  is_stmt 1
        movl      $.L_2__STRING.1, %eax                         #52.10
..LN174:
        movq      -40(%rbp), %rdx                               #52.10
..LN175:
        movl      -96(%rbp), %ecx                               #52.10
..LN176:
        movq      %rax, %rdi                                    #52.10
..LN177:
        movq      %rdx, %rsi                                    #52.10
..LN178:
        movl      %ecx, %edx                                    #52.10
..LN179:
        movl      $0, %eax                                      #52.10
..___tag_value_main.47:
..LN180:
#       printf(const char *, ...)
        call      printf                                        #52.10
..___tag_value_main.48:
..LN181:
                                # LOE rbx rbp rsp r12 r13 r14 r15 rip eax
..B3.22:                        # Preds ..B3.12
                                # Execution count [0.00e+00]
..LN182:
        movl      %eax, -64(%rbp)                               #52.10
..LN183:
                                # LOE rbx rbp rsp r12 r13 r14 r15 rip
..B3.13:                        # Preds ..B3.22
                                # Execution count [0.00e+00]
..LN184:
        movl      -64(%rbp), %eax                               #52.10
..LN185:
	.loc    1  52  epilogue_begin  is_stmt 1
        leave                                                   #52.10
	.cfi_restore 6
..LN186:
        ret                                                     #52.10
..LN187:
                                # LOE
..LN188:
	.cfi_endproc
# mark_end;
	.type	main,@function
	.size	main,.-main
..LNmain.189:
.LNmain:
	.data
# -- End  main
	.data
	.section .note.GNU-stack, ""
	.file   2 "/usr/include/stdio.h"
	.file   3 "/usr/include/libio.h"
	.file   4 "/usr/include/bits/types.h"
	.file   5 "/opt/intel/system_studio_2020/compilers_and_libraries_2020.0.166/linux/compiler/include/icc/stddef.h"
// -- Begin DWARF2 SEGMENT .debug_info
	.section .text
.LNDBG_TXe:
# End
