	.file	"test.c"
	.text
.Ltext0:
	.file 1 "test.c"
	.section	.rodata
.LC0:
	.string	"leaf"
	.text
	.globl	leaf
	.type	leaf, @function
leaf:
.LFB0:
	.loc 1 4 13
	.cfi_startproc
	pushq	%rbp
	.cfi_def_cfa_offset 16
	.cfi_offset 6, -16
	movq	%rsp, %rbp
	.cfi_def_cfa_register 6
	.loc 1 5 4
	movl	$.LC0, %edi
	call	puts
	.loc 1 6 1
	nop
	popq	%rbp
	.cfi_def_cfa 7, 8
	ret
	.cfi_endproc
.LFE0:
	.size	leaf, .-leaf
	.section	.rodata
.LC1:
	.string	"mid"
	.text
	.globl	mid
	.type	mid, @function
mid:
.LFB1:
	.loc 1 8 11
	.cfi_startproc
	pushq	%rbp
	.cfi_def_cfa_offset 16
	.cfi_offset 6, -16
	movq	%rsp, %rbp
	.cfi_def_cfa_register 6
	.loc 1 9 4
	movl	$.LC1, %edi
	call	puts
	.loc 1 10 4
	movl	$0, %eax
	call	leaf
	.loc 1 11 11
	movl	$10, %eax
	.loc 1 12 1
	popq	%rbp
	.cfi_def_cfa 7, 8
	ret
	.cfi_endproc
.LFE1:
	.size	mid, .-mid
	.section	.rodata
.LC2:
	.string	"top"
	.text
	.globl	top
	.type	top, @function
top:
.LFB2:
	.loc 1 14 11
	.cfi_startproc
	pushq	%rbp
	.cfi_def_cfa_offset 16
	.cfi_offset 6, -16
	movq	%rsp, %rbp
	.cfi_def_cfa_register 6
	.loc 1 15 4
	movl	$.LC2, %edi
	call	puts
	.loc 1 16 11
	movl	$0, %eax
	call	mid
	.loc 1 16 17 discriminator 1
	addl	$20, %eax
	.loc 1 17 1
	popq	%rbp
	.cfi_def_cfa 7, 8
	ret
	.cfi_endproc
.LFE2:
	.size	top, .-top
	.globl	main
	.type	main, @function
main:
.LFB3:
	.loc 1 19 12
	.cfi_startproc
	pushq	%rbp
	.cfi_def_cfa_offset 16
	.cfi_offset 6, -16
	movq	%rsp, %rbp
	.cfi_def_cfa_register 6
	.loc 1 20 11
	movl	$0, %eax
	call	top
	.loc 1 21 1
	popq	%rbp
	.cfi_def_cfa 7, 8
	ret
	.cfi_endproc
.LFE3:
	.size	main, .-main
.Letext0:
	.section	.note.GNU-stack,"",@progbits
