	.file	"main1.cxx"
	.text
.Ltext0:
	.section	.text._ZNKSt6chrono8durationIlSt5ratioILl1ELl1000000000EEE5countEv,"axG",@progbits,_ZNKSt6chrono8durationIlSt5ratioILl1ELl1000000000EEE5countEv,comdat
	.align 2
	.weak	_ZNKSt6chrono8durationIlSt5ratioILl1ELl1000000000EEE5countEv
	.type	_ZNKSt6chrono8durationIlSt5ratioILl1ELl1000000000EEE5countEv, @function
_ZNKSt6chrono8durationIlSt5ratioILl1ELl1000000000EEE5countEv:
.LFB503:
	.file 1 "/usr/include/c++/9/chrono"
	.loc 1 346 2
	.cfi_startproc
	endbr64
	pushq	%rbp
	.cfi_def_cfa_offset 16
	.cfi_offset 6, -16
	movq	%rsp, %rbp
	.cfi_def_cfa_register 6
	movq	%rdi, -8(%rbp)
	.loc 1 347 11
	movq	-8(%rbp), %rax
	movq	(%rax), %rax
	.loc 1 347 16
	popq	%rbp
	.cfi_def_cfa 7, 8
	ret
	.cfi_endproc
.LFE503:
	.size	_ZNKSt6chrono8durationIlSt5ratioILl1ELl1000000000EEE5countEv, .-_ZNKSt6chrono8durationIlSt5ratioILl1ELl1000000000EEE5countEv
	.section	.text._ZNSt6chrono8durationIlSt5ratioILl1ELl1000000000EEEC1IlvEERKT_,"axG",@progbits,_ZNSt6chrono8durationIlSt5ratioILl1ELl1000000000EEEC1IlvEERKT_,comdat
	.align 2
	.weak	_ZNSt6chrono8durationIlSt5ratioILl1ELl1000000000EEEC1IlvEERKT_
	.type	_ZNSt6chrono8durationIlSt5ratioILl1ELl1000000000EEEC1IlvEERKT_, @function
_ZNSt6chrono8durationIlSt5ratioILl1ELl1000000000EEEC1IlvEERKT_:
.LFB508:
	.loc 1 331 23
	.cfi_startproc
	endbr64
	pushq	%rbp
	.cfi_def_cfa_offset 16
	.cfi_offset 6, -16
	movq	%rsp, %rbp
	.cfi_def_cfa_register 6
	movq	%rdi, -8(%rbp)
	movq	%rsi, -16(%rbp)
.LBB2:
	.loc 1 332 33
	movq	-16(%rbp), %rax
	movq	(%rax), %rdx
	movq	-8(%rbp), %rax
	movq	%rdx, (%rax)
.LBE2:
	.loc 1 332 37
	nop
	popq	%rbp
	.cfi_def_cfa 7, 8
	ret
	.cfi_endproc
.LFE508:
	.size	_ZNSt6chrono8durationIlSt5ratioILl1ELl1000000000EEEC1IlvEERKT_, .-_ZNSt6chrono8durationIlSt5ratioILl1ELl1000000000EEEC1IlvEERKT_
	.globl	posinf
	.data
	.align 32
	.type	posinf, @object
	.size	posinf, 32
posinf:
	.long	2139095040
	.long	2139095040
	.long	2139095040
	.long	2139095040
	.long	2139095040
	.long	2139095040
	.long	2139095040
	.long	2139095040
	.globl	neginf
	.align 32
	.type	neginf, @object
	.size	neginf, 32
neginf:
	.long	-2147483648
	.long	-2147483648
	.long	-2147483648
	.long	-2147483648
	.long	-2147483648
	.long	-2147483648
	.long	-2147483648
	.long	-2147483648
	.globl	maxint
	.align 32
	.type	maxint, @object
	.size	maxint, 32
maxint:
	.long	2147483647
	.long	2147483647
	.long	2147483647
	.long	2147483647
	.long	2147483647
	.long	2147483647
	.long	2147483647
	.long	2147483647
	.globl	maxfloat
	.align 32
	.type	maxfloat, @object
	.size	maxfloat, 32
maxfloat:
	.long	2139095039
	.long	2139095039
	.long	2139095039
	.long	2139095039
	.long	2139095039
	.long	2139095039
	.long	2139095039
	.long	2139095039
	.text
	.globl	_Z11convF2I_avxPfPiii
	.type	_Z11convF2I_avxPfPiii, @function
_Z11convF2I_avxPfPiii:
.LFB526:
	.file 2 "main1.cxx"
	.loc 2 12 64
	.cfi_startproc
	endbr64
	pushq	%rbp
	.cfi_def_cfa_offset 16
	.cfi_offset 6, -16
	movq	%rsp, %rbp
	.cfi_def_cfa_register 6
	movq	%rdi, -24(%rbp)
	movq	%rsi, -32(%rbp)
	movl	%edx, -36(%rbp)
	movl	%ecx, -40(%rbp)
.LBB3:
	.loc 2 13 12
	movl	$0, -4(%rbp)
.L6:
	.loc 2 13 22 discriminator 3
	movl	-4(%rbp), %eax
	cmpl	-36(%rbp), %eax
	jge	.L5
	.loc 2 29 19 discriminator 2
	movl	-4(%rbp), %eax
	cltq
	.loc 2 29 18 discriminator 2
	leaq	0(,%rax,4), %rdx
	movq	-32(%rbp), %rax
	addq	%rdx, %rax
	.loc 2 30 18 discriminator 2
	movl	-4(%rbp), %edx
	movslq	%edx, %rdx
	.loc 2 30 17 discriminator 2
	leaq	0(,%rdx,4), %rcx
	movq	-24(%rbp), %rdx
	addq	%rcx, %rdx
	.loc 2 32 6 discriminator 2
#APP
# 32 "main1.cxx" 1
	vmovdqu (%rdx) , %ymm0 
	vpxor %ymm1, %ymm1 , %ymm1 
	vcvttps2dq %ymm0, %ymm2 
	vcmpps $3, %ymm0, %ymm0 , %ymm3 
	vblendvps %ymm3, %ymm1, %ymm2, %ymm2 
	vmovdqu posinf(%rip), %ymm1 
	vcmpps $0, %ymm0, %ymm1 , %ymm3 
	vmovdqu maxint(%rip), %ymm1 
	vblendvps %ymm3, %ymm1, %ymm2, %ymm2 
	vmovdqu maxfloat(%rip), %ymm1 
	vcmpps $0, %ymm0, %ymm1 , %ymm3 
	vmovdqu maxint(%rip), %ymm1 
	vblendvps %ymm3, %ymm1, %ymm2, %ymm2 
	vmovdqu %ymm2, (%rax) 
	
# 0 "" 2
	.loc 2 13 33 discriminator 2
#NO_APP
	addl	$8, -4(%rbp)
	.loc 2 13 3 discriminator 2
	jmp	.L6
.L5:
.LBE3:
	.loc 2 34 14
	movl	-40(%rbp), %eax
	cltq
	.loc 2 34 17
	leaq	0(,%rax,4), %rdx
	movq	-32(%rbp), %rax
	addq	%rdx, %rax
	movl	(%rax), %eax
	vcvtsi2ssl	%eax, %xmm0, %xmm0
	.loc 2 35 1
	popq	%rbp
	.cfi_def_cfa 7, 8
	ret
	.cfi_endproc
.LFE526:
	.size	_Z11convF2I_avxPfPiii, .-_Z11convF2I_avxPfPiii
	.globl	_Z14convF2I_avx512PfPiii
	.type	_Z14convF2I_avx512PfPiii, @function
_Z14convF2I_avx512PfPiii:
.LFB527:
	.loc 2 37 67
	.cfi_startproc
	endbr64
	pushq	%rbp
	.cfi_def_cfa_offset 16
	.cfi_offset 6, -16
	movq	%rsp, %rbp
	.cfi_def_cfa_register 6
	movq	%rdi, -24(%rbp)
	movq	%rsi, -32(%rbp)
	movl	%edx, -36(%rbp)
	movl	%ecx, -40(%rbp)
.LBB4:
	.loc 2 38 12
	movl	$0, -4(%rbp)
.L10:
	.loc 2 38 22 discriminator 3
	movl	-4(%rbp), %eax
	cmpl	-36(%rbp), %eax
	jge	.L9
	.loc 2 59 19 discriminator 2
	movl	-4(%rbp), %eax
	cltq
	.loc 2 59 18 discriminator 2
	leaq	0(,%rax,4), %rdx
	movq	-32(%rbp), %rax
	addq	%rdx, %rax
	.loc 2 60 18 discriminator 2
	movl	-4(%rbp), %edx
	movslq	%edx, %rdx
	.loc 2 60 17 discriminator 2
	leaq	0(,%rdx,4), %rcx
	movq	-24(%rbp), %rdx
	addq	%rcx, %rdx
	.loc 2 62 6 discriminator 2
#APP
# 62 "main1.cxx" 1
	vmovdqu (%rdx) , %ymm0 
	vcvttps2dq %ymm0, %ymm2 
	vmovdqu neginf(%rip), %ymm3 
	vcmpps $0, %ymm3, %ymm2 , %k1 
	kortestw %k1 , %k1 
	jnz special_case 
	vmovdqu %ymm2, (%rax) 
	jmp done 
	special_case: 
	vpxor %ymm1, %ymm1 , %ymm1 
	vcmpps $3, %ymm0 , %ymm0 , %ymm3 
	vblendvps %ymm3, %ymm1, %ymm2, %ymm2 
	vfpclassps $8, %ymm0 , %k1 
	vpmovm2d %k1, %ymm3 
	vmovdqu maxint(%rip), %ymm0 
	done: 
	vblendvps %ymm3, %ymm0, %ymm2, %ymm2 
	
# 0 "" 2
	.loc 2 38 33 discriminator 2
#NO_APP
	addl	$8, -4(%rbp)
	.loc 2 38 3 discriminator 2
	jmp	.L10
.L9:
.LBE4:
	.loc 2 64 14
	movl	-40(%rbp), %eax
	cltq
	.loc 2 64 17
	leaq	0(,%rax,4), %rdx
	movq	-32(%rbp), %rax
	addq	%rdx, %rax
	movl	(%rax), %eax
	vcvtsi2ssl	%eax, %xmm0, %xmm0
	.loc 2 65 1
	popq	%rbp
	.cfi_def_cfa 7, 8
	ret
	.cfi_endproc
.LFE527:
	.size	_Z14convF2I_avx512PfPiii, .-_Z14convF2I_avx512PfPiii
	.globl	_Z14convF2I_scalarPfPiii
	.type	_Z14convF2I_scalarPfPiii, @function
_Z14convF2I_scalarPfPiii:
.LFB528:
	.loc 2 67 67
	.cfi_startproc
	endbr64
	pushq	%rbp
	.cfi_def_cfa_offset 16
	.cfi_offset 6, -16
	movq	%rsp, %rbp
	.cfi_def_cfa_register 6
	movq	%rdi, -24(%rbp)
	movq	%rsi, -32(%rbp)
	movl	%edx, -36(%rbp)
	movl	%ecx, -40(%rbp)
.LBB5:
	.loc 2 68 11
	movl	$0, -4(%rbp)
.L14:
	.loc 2 68 21 discriminator 3
	movl	-4(%rbp), %eax
	cmpl	-36(%rbp), %eax
	jge	.L13
	.loc 2 69 26 discriminator 2
	movl	-4(%rbp), %eax
	cltq
	.loc 2 69 27 discriminator 2
	leaq	0(,%rax,4), %rdx
	movq	-24(%rbp), %rax
	addq	%rdx, %rax
	vmovss	(%rax), %xmm0
	.loc 2 69 11 discriminator 2
	movl	-4(%rbp), %eax
	cltq
	.loc 2 69 12 discriminator 2
	leaq	0(,%rax,4), %rdx
	movq	-32(%rbp), %rax
	addq	%rax, %rdx
	.loc 2 69 17 discriminator 2
	vcvttss2sil	%xmm0, %eax
	.loc 2 69 14 discriminator 2
	movl	%eax, (%rdx)
	.loc 2 68 3 discriminator 2
	addl	$1, -4(%rbp)
	jmp	.L14
.L13:
.LBE5:
	.loc 2 71 14
	movl	-40(%rbp), %eax
	cltq
	.loc 2 71 17
	leaq	0(,%rax,4), %rdx
	movq	-32(%rbp), %rax
	addq	%rdx, %rax
	movl	(%rax), %eax
	vcvtsi2ssl	%eax, %xmm0, %xmm0
	.loc 2 72 1
	popq	%rbp
	.cfi_def_cfa 7, 8
	ret
	.cfi_endproc
.LFE528:
	.size	_Z14convF2I_scalarPfPiii, .-_Z14convF2I_scalarPfPiii
	.section	.text._ZNSt6chrono8durationIdSt5ratioILl1ELl1EEEC1IlS1_ILl1ELl1000000000EEvEERKNS0_IT_T0_EE,"axG",@progbits,_ZNSt6chrono8durationIdSt5ratioILl1ELl1EEEC1IlS1_ILl1ELl1000000000EEvEERKNS0_IT_T0_EE,comdat
	.align 2
	.weak	_ZNSt6chrono8durationIdSt5ratioILl1ELl1EEEC1IlS1_ILl1ELl1000000000EEvEERKNS0_IT_T0_EE
	.type	_ZNSt6chrono8durationIdSt5ratioILl1ELl1EEEC1IlS1_ILl1ELl1000000000EEvEERKNS0_IT_T0_EE, @function
_ZNSt6chrono8durationIdSt5ratioILl1ELl1EEEC1IlS1_ILl1ELl1000000000EEvEERKNS0_IT_T0_EE:
.LFB532:
	.loc 1 338 14
	.cfi_startproc
	endbr64
	pushq	%rbp
	.cfi_def_cfa_offset 16
	.cfi_offset 6, -16
	movq	%rsp, %rbp
	.cfi_def_cfa_register 6
	subq	$32, %rsp
	movq	%rdi, -24(%rbp)
	movq	%rsi, -32(%rbp)
	.loc 1 338 14
	movq	%fs:40, %rax
	movq	%rax, -8(%rbp)
	xorl	%eax, %eax
.LBB6:
	.loc 1 339 33
	movq	-32(%rbp), %rax
	movq	%rax, %rdi
	call	_ZNSt6chrono13duration_castINS_8durationIdSt5ratioILl1ELl1EEEElS2_ILl1ELl1000000000EEEENSt9enable_ifIXsrNS_13__is_durationIT_EE5valueES8_E4typeERKNS1_IT0_T1_EE
	vmovsd	%xmm0, -16(%rbp)
	.loc 1 339 46
	leaq	-16(%rbp), %rax
	movq	%rax, %rdi
	call	_ZNKSt6chrono8durationIdSt5ratioILl1ELl1EEE5countEv
	vmovq	%xmm0, %rax
	movq	-24(%rbp), %rdx
	movq	%rax, (%rdx)
.LBE6:
	.loc 1 339 50
	nop
	movq	-8(%rbp), %rax
	xorq	%fs:40, %rax
	je	.L17
	call	__stack_chk_fail@PLT
.L17:
	leave
	.cfi_def_cfa 7, 8
	ret
	.cfi_endproc
.LFE532:
	.size	_ZNSt6chrono8durationIdSt5ratioILl1ELl1EEEC1IlS1_ILl1ELl1000000000EEvEERKNS0_IT_T0_EE, .-_ZNSt6chrono8durationIdSt5ratioILl1ELl1EEEC1IlS1_ILl1ELl1000000000EEvEERKNS0_IT_T0_EE
	.section	.text._ZNSt6chronomiINS_3_V212steady_clockENS_8durationIlSt5ratioILl1ELl1000000000EEEES6_EENSt11common_typeIJT0_T1_EE4typeERKNS_10time_pointIT_S8_EERKNSC_ISD_S9_EE,"axG",@progbits,_ZNSt6chronomiINS_3_V212steady_clockENS_8durationIlSt5ratioILl1ELl1000000000EEEES6_EENSt11common_typeIJT0_T1_EE4typeERKNS_10time_pointIT_S8_EERKNSC_ISD_S9_EE,comdat
	.weak	_ZNSt6chronomiINS_3_V212steady_clockENS_8durationIlSt5ratioILl1ELl1000000000EEEES6_EENSt11common_typeIJT0_T1_EE4typeERKNS_10time_pointIT_S8_EERKNSC_ISD_S9_EE
	.type	_ZNSt6chronomiINS_3_V212steady_clockENS_8durationIlSt5ratioILl1ELl1000000000EEEES6_EENSt11common_typeIJT0_T1_EE4typeERKNS_10time_pointIT_S8_EERKNSC_ISD_S9_EE, @function
_ZNSt6chronomiINS_3_V212steady_clockENS_8durationIlSt5ratioILl1ELl1000000000EEEES6_EENSt11common_typeIJT0_T1_EE4typeERKNS_10time_pointIT_S8_EERKNSC_ISD_S9_EE:
.LFB533:
	.loc 1 762 7
	.cfi_startproc
	endbr64
	pushq	%rbp
	.cfi_def_cfa_offset 16
	.cfi_offset 6, -16
	movq	%rsp, %rbp
	.cfi_def_cfa_register 6
	subq	$48, %rsp
	movq	%rdi, -40(%rbp)
	movq	%rsi, -48(%rbp)
	.loc 1 762 7
	movq	%fs:40, %rax
	movq	%rax, -8(%rbp)
	xorl	%eax, %eax
	.loc 1 764 41
	movq	-48(%rbp), %rax
	movq	%rax, %rdi
	call	_ZNKSt6chrono10time_pointINS_3_V212steady_clockENS_8durationIlSt5ratioILl1ELl1000000000EEEEE16time_since_epochEv
	movq	%rax, -16(%rbp)
	movq	-40(%rbp), %rax
	movq	%rax, %rdi
	call	_ZNKSt6chrono10time_pointINS_3_V212steady_clockENS_8durationIlSt5ratioILl1ELl1000000000EEEEE16time_since_epochEv
	movq	%rax, -24(%rbp)
	leaq	-16(%rbp), %rdx
	leaq	-24(%rbp), %rax
	movq	%rdx, %rsi
	movq	%rax, %rdi
	call	_ZNSt6chronomiIlSt5ratioILl1ELl1000000000EElS2_EENSt11common_typeIJNS_8durationIT_T0_EENS4_IT1_T2_EEEE4typeERKS7_RKSA_
	.loc 1 764 69
	movq	-8(%rbp), %rcx
	xorq	%fs:40, %rcx
	je	.L20
	call	__stack_chk_fail@PLT
.L20:
	leave
	.cfi_def_cfa 7, 8
	ret
	.cfi_endproc
.LFE533:
	.size	_ZNSt6chronomiINS_3_V212steady_clockENS_8durationIlSt5ratioILl1ELl1000000000EEEES6_EENSt11common_typeIJT0_T1_EE4typeERKNS_10time_pointIT_S8_EERKNSC_ISD_S9_EE, .-_ZNSt6chronomiINS_3_V212steady_clockENS_8durationIlSt5ratioILl1ELl1000000000EEEES6_EENSt11common_typeIJT0_T1_EE4typeERKNS_10time_pointIT_S8_EERKNSC_ISD_S9_EE
	.section	.text._ZNSt6chronomiIlSt5ratioILl1ELl1000000000EElS2_EENSt11common_typeIJNS_8durationIT_T0_EENS4_IT1_T2_EEEE4typeERKS7_RKSA_,"axG",@progbits,_ZNSt6chronomiIlSt5ratioILl1ELl1000000000EElS2_EENSt11common_typeIJNS_8durationIT_T0_EENS4_IT1_T2_EEEE4typeERKS7_RKSA_,comdat
	.weak	_ZNSt6chronomiIlSt5ratioILl1ELl1000000000EElS2_EENSt11common_typeIJNS_8durationIT_T0_EENS4_IT1_T2_EEEE4typeERKS7_RKSA_
	.type	_ZNSt6chronomiIlSt5ratioILl1ELl1000000000EElS2_EENSt11common_typeIJNS_8durationIT_T0_EENS4_IT1_T2_EEEE4typeERKS7_RKSA_, @function
_ZNSt6chronomiIlSt5ratioILl1ELl1000000000EElS2_EENSt11common_typeIJNS_8durationIT_T0_EENS4_IT1_T2_EEEE4typeERKS7_RKSA_:
.LFB534:
	.loc 1 463 7
	.cfi_startproc
	endbr64
	pushq	%rbp
	.cfi_def_cfa_offset 16
	.cfi_offset 6, -16
	movq	%rsp, %rbp
	.cfi_def_cfa_register 6
	pushq	%rbx
	subq	$72, %rsp
	.cfi_offset 3, -24
	movq	%rdi, -72(%rbp)
	movq	%rsi, -80(%rbp)
	.loc 1 463 7
	movq	%fs:40, %rax
	movq	%rax, -24(%rbp)
	xorl	%eax, %eax
	.loc 1 469 34
	movq	-72(%rbp), %rax
	movq	(%rax), %rax
	movq	%rax, -56(%rbp)
	leaq	-56(%rbp), %rax
	movq	%rax, %rdi
	call	_ZNKSt6chrono8durationIlSt5ratioILl1ELl1000000000EEE5countEv
	movq	%rax, %rbx
	movq	-80(%rbp), %rax
	movq	(%rax), %rax
	movq	%rax, -48(%rbp)
	leaq	-48(%rbp), %rax
	movq	%rax, %rdi
	call	_ZNKSt6chrono8durationIlSt5ratioILl1ELl1000000000EEE5countEv
	subq	%rax, %rbx
	movq	%rbx, %rax
	movq	%rax, -40(%rbp)
	.loc 1 469 55
	leaq	-40(%rbp), %rdx
	leaq	-32(%rbp), %rax
	movq	%rdx, %rsi
	movq	%rax, %rdi
	call	_ZNSt6chrono8durationIlSt5ratioILl1ELl1000000000EEEC1IlvEERKT_
	movq	-32(%rbp), %rax
	.loc 1 470 7
	movq	-24(%rbp), %rcx
	xorq	%fs:40, %rcx
	je	.L23
	call	__stack_chk_fail@PLT
.L23:
	addq	$72, %rsp
	popq	%rbx
	popq	%rbp
	.cfi_def_cfa 7, 8
	ret
	.cfi_endproc
.LFE534:
	.size	_ZNSt6chronomiIlSt5ratioILl1ELl1000000000EElS2_EENSt11common_typeIJNS_8durationIT_T0_EENS4_IT1_T2_EEEE4typeERKS7_RKSA_, .-_ZNSt6chronomiIlSt5ratioILl1ELl1000000000EElS2_EENSt11common_typeIJNS_8durationIT_T0_EENS4_IT1_T2_EEEE4typeERKS7_RKSA_
	.section	.text._ZNKSt6chrono10time_pointINS_3_V212steady_clockENS_8durationIlSt5ratioILl1ELl1000000000EEEEE16time_since_epochEv,"axG",@progbits,_ZNKSt6chrono10time_pointINS_3_V212steady_clockENS_8durationIlSt5ratioILl1ELl1000000000EEEEE16time_since_epochEv,comdat
	.align 2
	.weak	_ZNKSt6chrono10time_pointINS_3_V212steady_clockENS_8durationIlSt5ratioILl1ELl1000000000EEEEE16time_since_epochEv
	.type	_ZNKSt6chrono10time_pointINS_3_V212steady_clockENS_8durationIlSt5ratioILl1ELl1000000000EEEEE16time_since_epochEv, @function
_ZNKSt6chrono10time_pointINS_3_V212steady_clockENS_8durationIlSt5ratioILl1ELl1000000000EEEEE16time_since_epochEv:
.LFB535:
	.loc 1 649 2
	.cfi_startproc
	endbr64
	pushq	%rbp
	.cfi_def_cfa_offset 16
	.cfi_offset 6, -16
	movq	%rsp, %rbp
	.cfi_def_cfa_register 6
	movq	%rdi, -8(%rbp)
	.loc 1 650 11
	movq	-8(%rbp), %rax
	movq	(%rax), %rax
	.loc 1 650 16
	popq	%rbp
	.cfi_def_cfa 7, 8
	ret
	.cfi_endproc
.LFE535:
	.size	_ZNKSt6chrono10time_pointINS_3_V212steady_clockENS_8durationIlSt5ratioILl1ELl1000000000EEEEE16time_since_epochEv, .-_ZNKSt6chrono10time_pointINS_3_V212steady_clockENS_8durationIlSt5ratioILl1ELl1000000000EEEEE16time_since_epochEv
	.section	.text._ZNKSt6chrono8durationIdSt5ratioILl1ELl1EEE5countEv,"axG",@progbits,_ZNKSt6chrono8durationIdSt5ratioILl1ELl1EEE5countEv,comdat
	.align 2
	.weak	_ZNKSt6chrono8durationIdSt5ratioILl1ELl1EEE5countEv
	.type	_ZNKSt6chrono8durationIdSt5ratioILl1ELl1EEE5countEv, @function
_ZNKSt6chrono8durationIdSt5ratioILl1ELl1EEE5countEv:
.LFB536:
	.loc 1 346 2
	.cfi_startproc
	endbr64
	pushq	%rbp
	.cfi_def_cfa_offset 16
	.cfi_offset 6, -16
	movq	%rsp, %rbp
	.cfi_def_cfa_register 6
	movq	%rdi, -8(%rbp)
	.loc 1 347 11
	movq	-8(%rbp), %rax
	vmovsd	(%rax), %xmm0
	.loc 1 347 16
	popq	%rbp
	.cfi_def_cfa 7, 8
	ret
	.cfi_endproc
.LFE536:
	.size	_ZNKSt6chrono8durationIdSt5ratioILl1ELl1EEE5countEv, .-_ZNKSt6chrono8durationIdSt5ratioILl1ELl1EEE5countEv
	.section	.rodata
.LC0:
	.string	"vlen expected!\n"
.LC1:
	.string	"int main(int, char**)"
.LC2:
	.string	"main1.cxx"
.LC3:
	.string	"(vlen & (vlen - 1)) == 0"
	.align 8
.LC6:
	.string	"[VectorAVX Time] %lf  [Res] %f\n"
.LC7:
	.string	"%f -> %d \n"
	.align 8
.LC8:
	.string	"[VectorAVX512 Time] %lf  [Res] %f\n"
.LC9:
	.string	"[Scalar Time] %lf  [Res] %f\n"
	.text
	.globl	main
	.type	main, @function
main:
.LFB529:
	.loc 2 74 35
	.cfi_startproc
	endbr64
	pushq	%rbp
	.cfi_def_cfa_offset 16
	.cfi_offset 6, -16
	movq	%rsp, %rbp
	.cfi_def_cfa_register 6
	pushq	%r15
	pushq	%r14
	pushq	%r13
	pushq	%r12
	pushq	%rbx
	subq	$216, %rsp
	.cfi_offset 15, -24
	.cfi_offset 14, -32
	.cfi_offset 13, -40
	.cfi_offset 12, -48
	.cfi_offset 3, -56
	movl	%edi, -212(%rbp)
	movq	%rsi, -224(%rbp)
	.loc 2 74 35
	movq	%fs:40, %rax
	movq	%rax, -56(%rbp)
	xorl	%eax, %eax
	.loc 2 136 12
	movq	%rsp, %rax
	movq	%rax, %rbx
	.loc 2 75 4
	cmpl	$1, -212(%rbp)
	jg	.L29
	.loc 2 76 21
	movq	stderr(%rip), %rax
	leaq	.LC0(%rip), %rsi
	movq	%rax, %rdi
	movl	$0, %eax
	call	fprintf@PLT
	.loc 2 76 48
	jmp	.L30
.L29:
	.loc 2 78 26
	movq	-224(%rbp), %rax
	addq	$8, %rax
	.loc 2 78 19
	movq	(%rax), %rax
	movq	%rax, %rdi
	call	atoi@PLT
	movl	%eax, -172(%rbp)
	.loc 2 79 4
	movl	-172(%rbp), %eax
	subl	$1, %eax
	andl	-172(%rbp), %eax
	testl	%eax, %eax
	je	.L31
	.loc 2 79 4 is_stmt 0 discriminator 1
	leaq	.LC1(%rip), %rcx
	movl	$79, %edx
	leaq	.LC2(%rip), %rsi
	leaq	.LC3(%rip), %rdi
	call	__assert_fail@PLT
.L31:
	.loc 2 83 10 is_stmt 1
	vmovss	.LC4(%rip), %xmm0
	vmovss	%xmm0, -96(%rbp)
	vmovss	.LC4(%rip), %xmm0
	vmovss	%xmm0, -92(%rbp)
	vmovss	.LC4(%rip), %xmm0
	vmovss	%xmm0, -88(%rbp)
	vmovss	.LC4(%rip), %xmm0
	vmovss	%xmm0, -84(%rbp)
	vmovss	.LC4(%rip), %xmm0
	vmovss	%xmm0, -80(%rbp)
	vmovss	.LC4(%rip), %xmm0
	vmovss	%xmm0, -76(%rbp)
	vmovss	.LC4(%rip), %xmm0
	vmovss	%xmm0, -72(%rbp)
	vmovss	.LC4(%rip), %xmm0
	vmovss	%xmm0, -68(%rbp)
	.loc 2 86 16
	movl	-172(%rbp), %eax
	cltq
	subq	$1, %rax
	.loc 2 86 8
	movq	%rax, -128(%rbp)
	movq	%rax, %rdx
	addq	$1, %rdx
	movq	%rdx, -240(%rbp)
	movq	$0, -232(%rbp)
	movq	%rax, %rdx
	addq	$1, %rdx
	movq	%rdx, -256(%rbp)
	movq	$0, -248(%rbp)
	addq	$1, %rax
	leaq	0(,%rax,4), %rdx
	movl	$16, %eax
	subq	$1, %rax
	addq	%rdx, %rax
	movl	$16, %esi
	movl	$0, %edx
	divq	%rsi
	imulq	$16, %rax, %rax
	movq	%rax, %rdx
	andq	$-4096, %rdx
	movq	%rsp, %rsi
	subq	%rdx, %rsi
	movq	%rsi, %rdx
.L32:
	cmpq	%rdx, %rsp
	je	.L33
	subq	$4096, %rsp
	orq	$0, 4088(%rsp)
	jmp	.L32
.L33:
	movq	%rax, %rdx
	andl	$4095, %edx
	subq	%rdx, %rsp
	movq	%rax, %rdx
	andl	$4095, %edx
	testq	%rdx, %rdx
	je	.L34
	andl	$4095, %eax
	subq	$8, %rax
	addq	%rsp, %rax
	orq	$0, (%rax)
.L34:
	movq	%rsp, %rax
	addq	$3, %rax
	shrq	$2, %rax
	salq	$2, %rax
	movq	%rax, -120(%rbp)
	.loc 2 87 18
	movl	-172(%rbp), %eax
	cltq
	subq	$1, %rax
	.loc 2 87 10
	movq	%rax, -112(%rbp)
	movq	%rax, %rdx
	addq	$1, %rdx
	movq	%rdx, %r14
	movl	$0, %r15d
	movq	%rax, %rdx
	addq	$1, %rdx
	movq	%rdx, %r12
	movl	$0, %r13d
	addq	$1, %rax
	leaq	0(,%rax,4), %rdx
	movl	$16, %eax
	subq	$1, %rax
	addq	%rdx, %rax
	movl	$16, %ecx
	movl	$0, %edx
	divq	%rcx
	imulq	$16, %rax, %rax
	movq	%rax, %rdx
	andq	$-4096, %rdx
	movq	%rsp, %rcx
	subq	%rdx, %rcx
	movq	%rcx, %rdx
.L35:
	cmpq	%rdx, %rsp
	je	.L36
	subq	$4096, %rsp
	orq	$0, 4088(%rsp)
	jmp	.L35
.L36:
	movq	%rax, %rdx
	andl	$4095, %edx
	subq	%rdx, %rsp
	movq	%rax, %rdx
	andl	$4095, %edx
	testq	%rdx, %rdx
	je	.L37
	andl	$4095, %eax
	subq	$8, %rax
	addq	%rsp, %rax
	orq	$0, (%rax)
.L37:
	movq	%rsp, %rax
	addq	$3, %rax
	shrq	$2, %rax
	salq	$2, %rax
	movq	%rax, -104(%rbp)
.LBB7:
	.loc 2 88 13
	movl	$0, -176(%rbp)
.L39:
	.loc 2 88 22 discriminator 3
	movl	-176(%rbp), %eax
	cmpl	-172(%rbp), %eax
	jge	.L38
	.loc 2 89 23 discriminator 2
	movl	-176(%rbp), %eax
	andl	$7, %eax
	.loc 2 89 26 discriminator 2
	cltq
	vmovss	-96(%rbp,%rax,4), %xmm0
	.loc 2 89 14 discriminator 2
	movq	-104(%rbp), %rax
	movl	-176(%rbp), %edx
	movslq	%edx, %rdx
	vmovss	%xmm0, (%rax,%rdx,4)
	.loc 2 88 4 discriminator 2
	addl	$1, -176(%rbp)
	jmp	.L39
.L38:
.LBE7:
	.loc 2 92 10
	vxorps	%xmm0, %xmm0, %xmm0
	vmovss	%xmm0, -180(%rbp)
	.loc 2 93 48
	call	_ZNSt6chrono3_V212steady_clock3nowEv@PLT
	movq	%rax, -168(%rbp)
.LBB8:
	.loc 2 94 13
	movl	$0, -184(%rbp)
.L41:
	.loc 2 94 22 discriminator 3
	cmpl	$999999, -184(%rbp)
	jg	.L40
	.loc 2 95 51 discriminator 2
	movl	-172(%rbp), %eax
	subl	$1, %eax
	.loc 2 95 25 discriminator 2
	andl	-184(%rbp), %eax
	movl	%eax, %ecx
	movl	-172(%rbp), %edx
	movq	-120(%rbp), %rsi
	movq	-104(%rbp), %rax
	movq	%rax, %rdi
	call	_Z11convF2I_avxPfPiii
	.loc 2 95 11 discriminator 2
	vmovss	-180(%rbp), %xmm1
	vaddss	%xmm0, %xmm1, %xmm0
	vmovss	%xmm0, -180(%rbp)
	.loc 2 94 4 discriminator 2
	addl	$1, -184(%rbp)
	jmp	.L41
.L40:
.LBE8:
	.loc 2 97 46
	call	_ZNSt6chrono3_V212steady_clock3nowEv@PLT
	movq	%rax, -160(%rbp)
	.loc 2 99 47
	leaq	-168(%rbp), %rdx
	leaq	-160(%rbp), %rax
	movq	%rdx, %rsi
	movq	%rax, %rdi
	call	_ZNSt6chronomiINS_3_V212steady_clockENS_8durationIlSt5ratioILl1ELl1000000000EEEES6_EENSt11common_typeIJT0_T1_EE4typeERKNS_10time_pointIT_S8_EERKNSC_ISD_S9_EE
	movq	%rax, -136(%rbp)
	leaq	-136(%rbp), %rdx
	leaq	-152(%rbp), %rax
	movq	%rdx, %rsi
	movq	%rax, %rdi
	call	_ZNSt6chrono8durationIdSt5ratioILl1ELl1EEEC1IlS1_ILl1ELl1000000000EEvEERKNS0_IT_T0_EE
	.loc 2 100 10
	vcvtss2sd	-180(%rbp), %xmm2, %xmm2
	vmovsd	%xmm2, -240(%rbp)
	leaq	-152(%rbp), %rax
	movq	%rax, %rdi
	call	_ZNKSt6chrono8durationIdSt5ratioILl1ELl1EEE5countEv
	vmovsd	-240(%rbp), %xmm1
	leaq	.LC6(%rip), %rdi
	movl	$2, %eax
	call	printf@PLT
	.loc 2 101 10
	movl	$10, %edi
	call	putchar@PLT
.LBB9:
	.loc 2 103 12
	movl	$0, -188(%rbp)
.L43:
	.loc 2 103 22 discriminator 1
	cmpl	$7, -188(%rbp)
	jg	.L42
	.loc 2 104 13
	movq	-120(%rbp), %rax
	movl	-188(%rbp), %edx
	movslq	%edx, %rdx
	movl	(%rax,%rdx,4), %eax
	.loc 2 104 34
	movq	-104(%rbp), %rdx
	movl	-188(%rbp), %ecx
	movslq	%ecx, %rcx
	vmovss	(%rdx,%rcx,4), %xmm0
	.loc 2 104 13
	vcvtss2sd	%xmm0, %xmm0, %xmm0
	movl	%eax, %esi
	leaq	.LC7(%rip), %rdi
	movl	$1, %eax
	call	printf@PLT
	.loc 2 103 4
	addl	$1, -188(%rbp)
	jmp	.L43
.L42:
.LBE9:
	.loc 2 107 10
	movl	$10, %edi
	call	putchar@PLT
	.loc 2 108 8
	vxorps	%xmm0, %xmm0, %xmm0
	vmovss	%xmm0, -180(%rbp)
	.loc 2 109 43
	call	_ZNSt6chrono3_V212steady_clock3nowEv@PLT
	movq	%rax, -168(%rbp)
.LBB10:
	.loc 2 110 13
	movl	$0, -192(%rbp)
.L45:
	.loc 2 110 22 discriminator 3
	cmpl	$999999, -192(%rbp)
	jg	.L44
	.loc 2 111 54 discriminator 2
	movl	-172(%rbp), %eax
	subl	$1, %eax
	.loc 2 111 28 discriminator 2
	andl	-192(%rbp), %eax
	movl	%eax, %ecx
	movl	-172(%rbp), %edx
	movq	-120(%rbp), %rsi
	movq	-104(%rbp), %rax
	movq	%rax, %rdi
	call	_Z14convF2I_avx512PfPiii
	.loc 2 111 11 discriminator 2
	vmovss	-180(%rbp), %xmm1
	vaddss	%xmm0, %xmm1, %xmm0
	vmovss	%xmm0, -180(%rbp)
	.loc 2 110 4 discriminator 2
	addl	$1, -192(%rbp)
	jmp	.L45
.L44:
.LBE10:
	.loc 2 113 41
	call	_ZNSt6chrono3_V212steady_clock3nowEv@PLT
	movq	%rax, -160(%rbp)
	.loc 2 114 17
	leaq	-168(%rbp), %rdx
	leaq	-160(%rbp), %rax
	movq	%rdx, %rsi
	movq	%rax, %rdi
	call	_ZNSt6chronomiINS_3_V212steady_clockENS_8durationIlSt5ratioILl1ELl1000000000EEEES6_EENSt11common_typeIJT0_T1_EE4typeERKNS_10time_pointIT_S8_EERKNSC_ISD_S9_EE
	movq	%rax, -144(%rbp)
	.loc 2 114 9
	leaq	-144(%rbp), %rdx
	leaq	-136(%rbp), %rax
	movq	%rdx, %rsi
	movq	%rax, %rdi
	call	_ZNSt6chrono8durationIdSt5ratioILl1ELl1EEEC1IlS1_ILl1ELl1000000000EEvEERKNS0_IT_T0_EE
	vmovsd	-136(%rbp), %xmm0
	vmovsd	%xmm0, -152(%rbp)
	.loc 2 116 10
	vcvtss2sd	-180(%rbp), %xmm3, %xmm3
	vmovsd	%xmm3, -240(%rbp)
	leaq	-152(%rbp), %rax
	movq	%rax, %rdi
	call	_ZNKSt6chrono8durationIdSt5ratioILl1ELl1EEE5countEv
	vmovsd	-240(%rbp), %xmm1
	leaq	.LC8(%rip), %rdi
	movl	$2, %eax
	call	printf@PLT
	.loc 2 117 10
	movl	$10, %edi
	call	putchar@PLT
.LBB11:
	.loc 2 118 12
	movl	$0, -196(%rbp)
.L47:
	.loc 2 118 22 discriminator 1
	cmpl	$7, -196(%rbp)
	jg	.L46
	.loc 2 119 13
	movq	-120(%rbp), %rax
	movl	-196(%rbp), %edx
	movslq	%edx, %rdx
	movl	(%rax,%rdx,4), %eax
	.loc 2 119 34
	movq	-104(%rbp), %rdx
	movl	-196(%rbp), %ecx
	movslq	%ecx, %rcx
	vmovss	(%rdx,%rcx,4), %xmm0
	.loc 2 119 13
	vcvtss2sd	%xmm0, %xmm0, %xmm0
	movl	%eax, %esi
	leaq	.LC7(%rip), %rdi
	movl	$1, %eax
	call	printf@PLT
	.loc 2 118 4
	addl	$1, -196(%rbp)
	jmp	.L47
.L46:
.LBE11:
	.loc 2 122 10
	movl	$10, %edi
	call	putchar@PLT
	.loc 2 123 8
	vxorps	%xmm0, %xmm0, %xmm0
	vmovss	%xmm0, -180(%rbp)
	.loc 2 124 43
	call	_ZNSt6chrono3_V212steady_clock3nowEv@PLT
	movq	%rax, -168(%rbp)
.LBB12:
	.loc 2 125 13
	movl	$0, -200(%rbp)
.L49:
	.loc 2 125 22 discriminator 3
	cmpl	$999999, -200(%rbp)
	jg	.L48
	.loc 2 126 54 discriminator 2
	movl	-172(%rbp), %eax
	subl	$1, %eax
	.loc 2 126 28 discriminator 2
	andl	-200(%rbp), %eax
	movl	%eax, %ecx
	movl	-172(%rbp), %edx
	movq	-120(%rbp), %rsi
	movq	-104(%rbp), %rax
	movq	%rax, %rdi
	call	_Z14convF2I_scalarPfPiii
	.loc 2 126 11 discriminator 2
	vmovss	-180(%rbp), %xmm1
	vaddss	%xmm0, %xmm1, %xmm0
	vmovss	%xmm0, -180(%rbp)
	.loc 2 125 4 discriminator 2
	addl	$1, -200(%rbp)
	jmp	.L49
.L48:
.LBE12:
	.loc 2 128 41
	call	_ZNSt6chrono3_V212steady_clock3nowEv@PLT
	movq	%rax, -160(%rbp)
	.loc 2 129 17
	leaq	-168(%rbp), %rdx
	leaq	-160(%rbp), %rax
	movq	%rdx, %rsi
	movq	%rax, %rdi
	call	_ZNSt6chronomiINS_3_V212steady_clockENS_8durationIlSt5ratioILl1ELl1000000000EEEES6_EENSt11common_typeIJT0_T1_EE4typeERKNS_10time_pointIT_S8_EERKNSC_ISD_S9_EE
	movq	%rax, -144(%rbp)
	.loc 2 129 9
	leaq	-144(%rbp), %rdx
	leaq	-136(%rbp), %rax
	movq	%rdx, %rsi
	movq	%rax, %rdi
	call	_ZNSt6chrono8durationIdSt5ratioILl1ELl1EEEC1IlS1_ILl1ELl1000000000EEvEERKNS0_IT_T0_EE
	vmovsd	-136(%rbp), %xmm0
	vmovsd	%xmm0, -152(%rbp)
	.loc 2 131 10
	vcvtss2sd	-180(%rbp), %xmm4, %xmm4
	vmovsd	%xmm4, -240(%rbp)
	leaq	-152(%rbp), %rax
	movq	%rax, %rdi
	call	_ZNKSt6chrono8durationIdSt5ratioILl1ELl1EEE5countEv
	vmovsd	-240(%rbp), %xmm1
	leaq	.LC9(%rip), %rdi
	movl	$2, %eax
	call	printf@PLT
	.loc 2 132 10
	movl	$10, %edi
	call	putchar@PLT
.LBB13:
	.loc 2 133 12
	movl	$0, -204(%rbp)
.L51:
	.loc 2 133 22 discriminator 1
	cmpl	$7, -204(%rbp)
	jg	.L50
	.loc 2 134 13
	movq	-120(%rbp), %rax
	movl	-204(%rbp), %edx
	movslq	%edx, %rdx
	movl	(%rax,%rdx,4), %eax
	.loc 2 134 34
	movq	-104(%rbp), %rdx
	movl	-204(%rbp), %ecx
	movslq	%ecx, %rcx
	vmovss	(%rdx,%rcx,4), %xmm0
	.loc 2 134 13
	vcvtss2sd	%xmm0, %xmm0, %xmm0
	movl	%eax, %esi
	leaq	.LC7(%rip), %rdi
	movl	$1, %eax
	call	printf@PLT
	.loc 2 133 4
	addl	$1, -204(%rbp)
	jmp	.L51
.L50:
.LBE13:
	.loc 2 136 11
	movl	$0, %eax
.L30:
	movq	%rbx, %rsp
	.loc 2 137 1
	movq	-56(%rbp), %rbx
	xorq	%fs:40, %rbx
	je	.L53
	call	__stack_chk_fail@PLT
.L53:
	leaq	-40(%rbp), %rsp
	popq	%rbx
	popq	%r12
	popq	%r13
	popq	%r14
	popq	%r15
	popq	%rbp
	.cfi_def_cfa 7, 8
	ret
	.cfi_endproc
.LFE529:
	.size	main, .-main
	.section	.text._ZNSt6chrono13duration_castINS_8durationIdSt5ratioILl1ELl1EEEElS2_ILl1ELl1000000000EEEENSt9enable_ifIXsrNS_13__is_durationIT_EE5valueES8_E4typeERKNS1_IT0_T1_EE,"axG",@progbits,_ZNSt6chrono13duration_castINS_8durationIdSt5ratioILl1ELl1EEEElS2_ILl1ELl1000000000EEEENSt9enable_ifIXsrNS_13__is_durationIT_EE5valueES8_E4typeERKNS1_IT0_T1_EE,comdat
	.weak	_ZNSt6chrono13duration_castINS_8durationIdSt5ratioILl1ELl1EEEElS2_ILl1ELl1000000000EEEENSt9enable_ifIXsrNS_13__is_durationIT_EE5valueES8_E4typeERKNS1_IT0_T1_EE
	.type	_ZNSt6chrono13duration_castINS_8durationIdSt5ratioILl1ELl1EEEElS2_ILl1ELl1000000000EEEENSt9enable_ifIXsrNS_13__is_durationIT_EE5valueES8_E4typeERKNS1_IT0_T1_EE, @function
_ZNSt6chrono13duration_castINS_8durationIdSt5ratioILl1ELl1EEEElS2_ILl1ELl1000000000EEEENSt9enable_ifIXsrNS_13__is_durationIT_EE5valueES8_E4typeERKNS1_IT0_T1_EE:
.LFB565:
	.loc 1 191 7
	.cfi_startproc
	endbr64
	pushq	%rbp
	.cfi_def_cfa_offset 16
	.cfi_offset 6, -16
	movq	%rsp, %rbp
	.cfi_def_cfa_register 6
	subq	$16, %rsp
	movq	%rdi, -8(%rbp)
	.loc 1 200 21
	movq	-8(%rbp), %rax
	movq	%rax, %rdi
	call	_ZNSt6chrono20__duration_cast_implINS_8durationIdSt5ratioILl1ELl1EEEES2_ILl1ELl1000000000EEdLb1ELb0EE6__castIlS5_EES4_RKNS1_IT_T0_EE
	.loc 1 201 7
	leave
	.cfi_def_cfa 7, 8
	ret
	.cfi_endproc
.LFE565:
	.size	_ZNSt6chrono13duration_castINS_8durationIdSt5ratioILl1ELl1EEEElS2_ILl1ELl1000000000EEEENSt9enable_ifIXsrNS_13__is_durationIT_EE5valueES8_E4typeERKNS1_IT0_T1_EE, .-_ZNSt6chrono13duration_castINS_8durationIdSt5ratioILl1ELl1EEEElS2_ILl1ELl1000000000EEEENSt9enable_ifIXsrNS_13__is_durationIT_EE5valueES8_E4typeERKNS1_IT0_T1_EE
	.section	.text._ZNSt6chrono20__duration_cast_implINS_8durationIdSt5ratioILl1ELl1EEEES2_ILl1ELl1000000000EEdLb1ELb0EE6__castIlS5_EES4_RKNS1_IT_T0_EE,"axG",@progbits,_ZNSt6chrono20__duration_cast_implINS_8durationIdSt5ratioILl1ELl1EEEES2_ILl1ELl1000000000EEdLb1ELb0EE6__castIlS5_EES4_RKNS1_IT_T0_EE,comdat
	.weak	_ZNSt6chrono20__duration_cast_implINS_8durationIdSt5ratioILl1ELl1EEEES2_ILl1ELl1000000000EEdLb1ELb0EE6__castIlS5_EES4_RKNS1_IT_T0_EE
	.type	_ZNSt6chrono20__duration_cast_implINS_8durationIdSt5ratioILl1ELl1EEEES2_ILl1ELl1000000000EEdLb1ELb0EE6__castIlS5_EES4_RKNS1_IT_T0_EE, @function
_ZNSt6chrono20__duration_cast_implINS_8durationIdSt5ratioILl1ELl1EEEES2_ILl1ELl1000000000EEdLb1ELb0EE6__castIlS5_EES4_RKNS1_IT_T0_EE:
.LFB572:
	.loc 1 149 4
	.cfi_startproc
	endbr64
	pushq	%rbp
	.cfi_def_cfa_offset 16
	.cfi_offset 6, -16
	movq	%rsp, %rbp
	.cfi_def_cfa_register 6
	subq	$48, %rsp
	movq	%rdi, -40(%rbp)
	.loc 1 149 4
	movq	%fs:40, %rax
	movq	%rax, -8(%rbp)
	xorl	%eax, %eax
	.loc 1 153 8
	movq	-40(%rbp), %rax
	movq	%rax, %rdi
	call	_ZNKSt6chrono8durationIlSt5ratioILl1ELl1000000000EEE5countEv
	.loc 1 153 38
	vcvtsi2sdq	%rax, %xmm0, %xmm0
	vmovsd	.LC10(%rip), %xmm1
	vdivsd	%xmm1, %xmm0, %xmm0
	vmovsd	%xmm0, -24(%rbp)
	.loc 1 153 67
	leaq	-24(%rbp), %rdx
	leaq	-16(%rbp), %rax
	movq	%rdx, %rsi
	movq	%rax, %rdi
	call	_ZNSt6chrono8durationIdSt5ratioILl1ELl1EEEC1IdvEERKT_
	vmovsd	-16(%rbp), %xmm0
	.loc 1 154 4
	movq	-8(%rbp), %rax
	xorq	%fs:40, %rax
	je	.L58
	call	__stack_chk_fail@PLT
.L58:
	leave
	.cfi_def_cfa 7, 8
	ret
	.cfi_endproc
.LFE572:
	.size	_ZNSt6chrono20__duration_cast_implINS_8durationIdSt5ratioILl1ELl1EEEES2_ILl1ELl1000000000EEdLb1ELb0EE6__castIlS5_EES4_RKNS1_IT_T0_EE, .-_ZNSt6chrono20__duration_cast_implINS_8durationIdSt5ratioILl1ELl1EEEES2_ILl1ELl1000000000EEdLb1ELb0EE6__castIlS5_EES4_RKNS1_IT_T0_EE
	.section	.text._ZNSt6chrono8durationIdSt5ratioILl1ELl1EEEC2IdvEERKT_,"axG",@progbits,_ZNSt6chrono8durationIdSt5ratioILl1ELl1EEEC5IdvEERKT_,comdat
	.align 2
	.weak	_ZNSt6chrono8durationIdSt5ratioILl1ELl1EEEC2IdvEERKT_
	.type	_ZNSt6chrono8durationIdSt5ratioILl1ELl1EEEC2IdvEERKT_, @function
_ZNSt6chrono8durationIdSt5ratioILl1ELl1EEEC2IdvEERKT_:
.LFB575:
	.loc 1 331 23
	.cfi_startproc
	endbr64
	pushq	%rbp
	.cfi_def_cfa_offset 16
	.cfi_offset 6, -16
	movq	%rsp, %rbp
	.cfi_def_cfa_register 6
	movq	%rdi, -8(%rbp)
	movq	%rsi, -16(%rbp)
.LBB14:
	.loc 1 332 33
	movq	-16(%rbp), %rax
	vmovsd	(%rax), %xmm0
	movq	-8(%rbp), %rax
	vmovsd	%xmm0, (%rax)
.LBE14:
	.loc 1 332 37
	nop
	popq	%rbp
	.cfi_def_cfa 7, 8
	ret
	.cfi_endproc
.LFE575:
	.size	_ZNSt6chrono8durationIdSt5ratioILl1ELl1EEEC2IdvEERKT_, .-_ZNSt6chrono8durationIdSt5ratioILl1ELl1EEEC2IdvEERKT_
	.weak	_ZNSt6chrono8durationIdSt5ratioILl1ELl1EEEC1IdvEERKT_
	.set	_ZNSt6chrono8durationIdSt5ratioILl1ELl1EEEC1IdvEERKT_,_ZNSt6chrono8durationIdSt5ratioILl1ELl1EEEC2IdvEERKT_
	.section	.rodata
	.align 4
.LC4:
	.long	2139095039
	.align 8
.LC10:
	.long	0
	.long	1104006501
	.text
.Letext0:
	.file 3 "/usr/include/c++/9/cmath"
	.file 4 "/usr/include/c++/9/bits/std_abs.h"
	.file 5 "/usr/include/c++/9/type_traits"
	.file 6 "/usr/include/c++/9/cstdint"
	.file 7 "/usr/include/c++/9/ctime"
	.file 8 "/usr/include/x86_64-linux-gnu/c++/9/bits/c++config.h"
	.file 9 "/usr/include/c++/9/ratio"
	.file 10 "/usr/include/x86_64-linux-gnu/bits/types.h"
	.file 11 "/usr/include/math.h"
	.file 12 "/usr/lib/gcc/x86_64-linux-gnu/9/include/stddef.h"
	.file 13 "/usr/include/x86_64-linux-gnu/bits/types/clock_t.h"
	.file 14 "/usr/include/x86_64-linux-gnu/bits/types/time_t.h"
	.file 15 "/usr/include/x86_64-linux-gnu/bits/stdint-intn.h"
	.file 16 "/usr/include/c++/9/math.h"
	.file 17 "/usr/include/x86_64-linux-gnu/bits/mathcalls.h"
	.file 18 "/usr/include/stdlib.h"
	.file 19 "/usr/include/x86_64-linux-gnu/bits/types/struct_FILE.h"
	.file 20 "/usr/include/x86_64-linux-gnu/bits/types/FILE.h"
	.file 21 "/usr/include/stdio.h"
	.file 22 "/usr/include/x86_64-linux-gnu/bits/sys_errlist.h"
	.file 23 "/usr/include/x86_64-linux-gnu/bits/stdint-uintn.h"
	.file 24 "/usr/include/stdint.h"
	.file 25 "/usr/include/x86_64-linux-gnu/bits/types/struct_tm.h"
	.file 26 "/usr/include/time.h"
	.file 27 "<built-in>"
	.section	.note.GNU-stack,"",@progbits
	.section	.note.gnu.property,"a"
	.align 8
	.long	 1f - 0f
	.long	 4f - 1f
	.long	 5
0:
	.string	 "GNU"
1:
	.align 8
	.long	 0xc0000002
	.long	 3f - 2f
2:
	.long	 0x3
3:
	.align 8
4:
